ccopy_reg
_reconstructor
p0
(ccollections
Counter
p1
c__builtin__
dict
p2
(dp3
Vsecondly
p4
I29
sVwritings
p5
I11
sVpardon
p6
I17
sVfig.
p7
I59
sVfig*
p8
I16
sVyellow
p9
I41
sVnato
p10
I15
sVfour
p11
I461
sVnottingham
p12
I21
sVprotest
p13
I28
sVwoods
p14
I15
sVasian
p15
I19
sVhanging
p16
I23
sVconsists
p17
I26
sVcaptain
p18
I54
sVaggression
p19
I13
sVlooking
p20
I264
sVcalculate
p21
I10
sVeligible
p22
I13
sVelectricity
p23
I38
sVdisability
p24
I15
sVpensions
p25
I19
sVpresents
p26
I16
sVtrousers
p27
I23
sVlord
p28
I20
sVsorry
p29
I114
sVpact
p30
I11
sVrescue
p31
I17
sVco-operation
p32
I35
sVdynamic
p33
I16
sVregional
p34
I78
sVrailways
p35
I19
sVreforms
p36
I28
sVaffect
p37
I48
sVbringing
p38
I49
sVvast
p39
I47
sVlook
p40
I110
sVno-one*
p41
I21
sVprize
p42
I31
sVwooden
p43
I35
sVcompanies
p44
I178
sVwednesday
p45
I44
sV000
p46
I15
sVherbert
p47
I12
sVcoventry
p48
I12
sVsuccession
p49
I19
sVenhance
p50
I14
sVcommented
p51
I20
sVclothes
p52
I73
sVfavoured
p53
I13
sVher*
p54
I1085
sVcharter
p55
I22
sVexpanded
p56
I14
sVforce
p57
I22
sVspecially
p58
I20
sVtired
p59
I40
sVmiller
p60
I20
sVjapanese
p61
I11
sVpulse
p62
I11
sVme*
p63
I23
sVelegant
p64
I18
sVsecond
p65
I56
sVe.
p66
I18
sVimplemented
p67
I17
sVcolourful
p68
I11
sVeven
p69
I15
sVerrors
p70
I21
sVpace
p71
I31
sVhate
p72
I27
sVcooking
p73
I11
sVcontributed
p74
I23
sVfingers
p75
I58
sVasia
p76
I30
sVspokesman
p77
I40
sVlights
p78
I46
sVdr.
p79
I12
sVnew
p80
I1145
sVtips
p81
I11
sVincreasing
p82
I26
sVever
p83
I259
sVspecialist
p84
I37
sVdeemed
p85
I14
sVhero
p86
I23
sVreporter
p87
I12
sVseventh
p88
I15
sVmen
p89
I389
sVhere
p90
I699
sVatoms
p91
I11
sVreported
p92
I114
sVchina
p93
I46
sVpossibility
p94
I71
sVhers
p95
I25
sV100
p96
I69
sVinterpret
p97
I13
sVdry
p98
I12
sVkids
p99
I44
sVtapes
p100
I14
sVmitchell
p101
I10
sVelaborate
p102
I13
sVclimbed
p103
I24
sVin~*
p104
I20
sVreports
p105
I35
sVcontroversy
p106
I19
sVcredit
p107
I71
sVpermit
p108
I14
sVmilitary
p109
I108
sVsuitable
p110
I61
sVdecision-making
p111
I14
sVcriticism
p112
I48
sVgolden
p113
I39
sVfantastic
p114
I12
sVdivide
p115
I12
sVclassification
p116
I17
sVmobility
p117
I15
sVexplained
p118
I71
sVreagan
p119
I11
sVreplace
p120
I34
sVbrought
p121
I204
sVunix
p122
I42
sVninety
p123
I42
sVmoral
p124
I52
sVguests
p125
I34
sVcounts
p126
I12
sVunit
p127
I109
sVopponents
p128
I16
sVdna
p129
I33
sVspoke
p130
I70
sVarmy
p131
I114
sVremainder
p132
I17
sV42
p133
I14
sVarms
p134
I110
sVinevitable
p135
I28
sVedward
p136
I69
sVmusic
p137
I150
sVtherefore
p138
I232
sVrecommend
p139
I18
sVstrike
p140
I18
sVsurvive
p141
I35
sVtype
p142
I170
sVuntil
p143
I167
sVfemales
p144
I20
sVsupporters
p145
I37
sVholy
p146
I30
sVrelax
p147
I18
sVsuccessful
p148
I108
sVbrings
p149
I32
sVwars
p150
I19
sVhurt
p151
I38
sVwarn
p152
I11
sVglass
p153
I95
sVberlin
p154
I27
sVwarm
p155
I64
sVadult
p156
I45
sVteaching
p157
I33
sV90
p158
I23
sVhole
p159
I46
sVhold
p160
I30
sVcircumstances
p161
I104
sVvat/vat
p162
I24
sVlocked
p163
I26
sVroom
p164
I309
sVrights
p165
I130
sVpursue
p166
I20
sVblade
p167
I11
sVroof
p168
I41
sVmovies
p169
I10
sVtemperatures
p170
I14
sVconcepts
p171
I27
sVexceptions
p172
I15
sVrevenues
p173
I12
sVroot
p174
I20
sVexample
p175
I125
sVtransition
p176
I23
sVgive
p177
I451
sVhousehold
p178
I39
sVorganized
p179
I20
sVdevelopments
p180
I51
sVhoney
p181
I11
sVcurrency
p182
I35
sVfoods
p183
I21
sVcaution
p184
I13
sVwant
p185
I572
sVabsolute
p186
I35
sVprovincial
p187
I16
sVautonomy
p188
I18
sVtravel
p189
I36
sVdamage
p190
I13
sVmachine
p191
I84
sVhow
p192
I1016
sVhot
p193
I91
sVsignificance
p194
I47
sVanswer
p195
I52
sVgordon
p196
I26
sVminority
p197
I34
sVbeauty
p198
I42
sVreplacing
p199
I15
sVinvitation
p200
I19
sVloyalty
p201
I17
sVdiagram
p202
I13
sVwrong
p203
I149
sVcoup
p204
I17
sVcuriosity
p205
I12
sVpresident
p206
I164
sVtypes
p207
I89
sVpurchase
p208
I14
sVattempt
p209
I26
sVeffective
p210
I99
sVgrant
p211
I13
sVheadquarters
p212
I28
sVcapitalism
p213
I19
sVcigarettes
p214
I13
sV18th
p215
I10
sVfrequent
p216
I24
sVgoodbye
p217
I10
sVkeeps
p218
I26
sVdemocratic
p219
I59
sVwing
p220
I28
sVwind
p221
I71
sVwine
p222
I63
sVoperations
p223
I60
sVrestriction
p224
I12
sVbelong
p225
I21
sVfeedback
p226
I13
sVdeck
p227
I14
sVwelcomed
p228
I23
sVvary
p229
I30
sVmurray
p230
I12
sVjournals
p231
I10
sVbefore
p232
I143
sVposition
p233
I228
sVfit
p234
I30
sVpersonal
p235
I176
sVscreaming
p236
I12
sVfix
p237
I12
sVstriking
p238
I17
sVauditors
p239
I12
sVcrew
p240
I30
sVbetter
p241
I143
sVdifferently
p242
I15
sVwales
p243
I93
sVhidden
p244
I13
sVeasier
p245
I12
sVovercome
p246
I26
sVdec.
p247
I28
sVcombination
p248
I44
sVweakness
p249
I17
sVunemployed
p250
I28
sVgrand
p251
I46
sVschool
p252
I375
sVmodification
p253
I10
sVtherapy
p254
I19
sVeffects
p255
I108
sVschools
p256
I154
sVsixteen
p257
I27
sVsilver
p258
I39
sVstructural
p259
I27
sVrepresents
p260
I33
sVgrammar
p261
I24
sVmeat
p262
I36
sVdebut
p263
I16
sVarrested
p264
I35
sVlucy
p265
I27
sVcrops
p266
I16
sVleaned
p267
I23
sVarrow
p268
I10
sVwent
p269
I483
sVmeal
p270
I43
sVbone
p271
I24
sVluck
p272
I32
sVfinancial
p273
I165
sVseries
p274
I144
sVallan
p275
I10
sVcommons
p276
I33
sVvote
p277
I23
sVtaught
p278
I38
sVtrading
p279
I12
sVfortnight
p280
I14
sVforgot
p281
I16
sVsubstantially
p282
I17
sVcathedral
p283
I24
sVdawn
p284
I15
sVcollector
p285
I11
sVring
p286
I29
sVborne
p287
I11
sVmerchants
p288
I10
sVdrove
p289
I37
sVrestricted
p290
I21
sVtales
p291
I13
sVcrucial
p292
I45
sVtomorrow
p293
I93
sVparticles
p294
I17
sVencourage
p295
I51
sVadapt
p296
I10
sVreader
p297
I41
sVsurprise
p298
I48
sVaccessible
p299
I16
sVengineer
p300
I22
sVfoundation
p301
I37
sVturning
p302
I58
sVlinear
p303
I13
sVassured
p304
I18
sVthreatened
p305
I37
sVgiven
p306
I31
sVmanagerial
p307
I13
sVnecessarily
p308
I57
sVstruggle
p309
I37
sVelsewhere
p310
I57
sVchecked
p311
I25
sVestimate
p312
I17
sVknit
p313
I11
sVswimming
p314
I18
sVenormous
p315
I42
sVate
p316
I18
sVshelves
p317
I12
sVstarts
p318
I39
sVmessages
p319
I20
sVheading
p320
I10
sVmusicians
p321
I12
sV1970s
p322
I34
sVkingdom
p323
I22
sVarrived
p324
I88
sVr.
p325
I19
sVloud
p326
I16
sVstewart
p327
I21
sVnigel
p328
I34
sVfeatures
p329
I81
sVgrade
p330
I19
sVchannels
p331
I18
sVwash
p332
I17
sVfeatured
p333
I13
sVfloors
p334
I12
sVclarity
p335
I11
sVfeb.
p336
I27
sVbrussels
p337
I15
sVservice
p338
I300
sVsimilarly
p339
I45
sVengagement
p340
I12
sVhistorian
p341
I14
sVtwisted
p342
I11
sVneeded
p343
I165
sVmaster
p344
I62
sVlisted
p345
I25
sVgilbert
p346
I11
sVlegs
p347
I65
sVbitter
p348
I24
sVranging
p349
I15
sVlisten
p350
I57
sVrewards
p351
I11
sVcollapse
p352
I21
sVgeneva
p353
I10
sVvillages
p354
I28
sVfrowned
p355
I13
sVwisdom
p356
I15
sVsomewhat
p357
I46
sVhelen
p358
I27
sVyours
p359
I42
sVpeculiar
p360
I14
sVpositively
p361
I13
sVbegins
p362
I33
sVdistance
p363
I66
sVanxiety
p364
I27
sVshowed
p365
I107
sVbits
p366
I34
sVdatabase
p367
I34
sVtree
p368
I64
sVlikely
p369
I227
sVnations
p370
I41
sVpreparation
p371
I33
sVmatter
p372
I38
sVpersuade
p373
I24
sVsilly
p374
I28
sVwilliams
p375
I33
sVfeeling
p376
I58
sVacquisition
p377
I26
sVsees
p378
I35
sVwillingness
p379
I12
sVmodern
p380
I131
sVmind
p381
I72
sVspectrum
p382
I16
sVseed
p383
I16
sVseen
p384
I376
sVseem
p385
I170
sVobviously
p386
I110
sVseek
p387
I54
sVtells
p388
I37
sValive
p389
I43
sVdozen
p390
I27
sVaffairs
p391
I73
sVabroad
p392
I39
sVperson
p393
I250
sVclimate
p394
I28
sVresponsible
p395
I94
sVrecommended
p396
I32
sVcausing
p397
I33
sVabsorbed
p398
I15
sVmachines
p399
I48
sVdoors
p400
I48
sVltd.
p401
I13
sVlion
p402
I12
sVshall
p403
I202
sVtoxic
p404
I12
sVobject
p405
I10
sVvictoria
p406
I26
sVkelly
p407
I21
sVregular
p408
I75
sVmouth
p409
I93
sVcornwall
p410
I13
sVletter
p411
I136
sVorganization
p412
I63
sVmarie
p413
I18
sVmorality
p414
I12
sVbradford
p415
I12
sVsinger
p416
I13
sVepisode
p417
I13
sVobservation
p418
I29
sVprofessor
p419
I52
sVcamp
p420
I31
sVm
p421
I13
sVdog
p422
I80
sVcompetitors
p423
I16
sVdefinitely
p424
I32
sVprinciple
p425
I82
sVnineteenth
p426
I33
sVlancashire
p427
I17
sVcame
p428
I472
sVsaying
p429
I180
sVbeaten
p430
I19
sVbomb
p431
I27
sVhunger
p432
I11
sVinsects
p433
I14
sVorchestra
p434
I15
sVmeetings
p435
I54
sVretire
p436
I11
sVzealand nop-
p437
I26
sVdevised
p438
I13
sVending
p439
I14
sVattempts
p440
I47
sVabilities
p441
I13
sVliberty
p442
I14
sVparticipate
p443
I17
sVhungary
p444
I15
sVtempted
p445
I12
sVlessons
p446
I23
sVjudges
p447
I25
sVbusy
p448
I50
sVlayout
p449
I12
sVlouise
p450
I15
sVmenu
p451
I16
sVweekends
p452
I10
sVdebts
p453
I19
sVsugar
p454
I36
sVtheme
p455
I39
sVtouched
p456
I30
sVrich
p457
I67
sVrice
p458
I16
sVwearing
p459
I50
sVplate
p460
I41
sVexports
p461
I19
sVabove
p462
I27
sVprofessionals
p463
I23
sVstop
p464
I20
sVpsychiatric
p465
I11
sVcoast
p466
I46
sVpocket
p467
I35
sVchristopher
p468
I23
sVspirit
p469
I65
sValtogether
p470
I32
sVreviewed
p471
I15
sVnet
p472
I25
sVcomply
p473
I14
sVsocieties
p474
I44
sVearl
p475
I23
sVearn
p476
I20
sVbar
p477
I77
sVfields
p478
I58
sVpatch
p479
I16
sVbag
p480
I53
sVbad
p481
I153
sVsoftly
p482
I25
sVarchitecture
p483
I28
sVrival
p484
I14
sVrelease
p485
I18
sVfertility
p486
I12
sVears
p487
I30
sVrespond
p488
I35
sVethical
p489
I11
sVblew
p490
I13
sVdisaster
p491
I28
sVfair
p492
I84
sVsensitivity
p493
I16
sVtesting
p494
I14
sVzones
p495
I12
sVdecided
p496
I151
sVresult
p497
I34
sVfail
p498
I33
sVresigned
p499
I20
sVbest
p500
I81
sVjuliet
p501
I12
sVpete
p502
I13
sV01
p503
I11
sVambitions
p504
I10
sVlots
p505
I45
sVrings
p506
I12
sVartificial
p507
I20
sVcontinent
p508
I16
sVpressures
p509
I27
sVscore
p510
I14
sVconceptual
p511
I10
sVira
p512
I18
sVoccupational
p513
I17
sVglasgow
p514
I42
sVpreserve
p515
I15
sVwage
p516
I31
sVnever
p517
I559
sVextend
p518
I31
sVnature
p519
I181
sVrolled
p520
I20
sVignorance
p521
I11
sVdrew
p522
I46
sVextent
p523
I100
sVcarbon
p524
I25
sVpicking
p525
I21
sV10%
p526
I13
sVpity
p527
I17
sVaccident
p528
I64
sVmet
p529
I138
sVcountry
p530
I319
sVconclusions
p531
I24
sVheating
p532
I20
sVdemanded
p533
I37
sVlot*
p534
I246
sVestates
p535
I20
sVplanned
p536
I14
sVlogic
p537
I23
sVdistinction
p538
I41
sVcontribution
p539
I54
sVargue
p540
I43
sVadapted
p541
I14
sVasked
p542
I334
sVpresumably
p543
I33
sVappeared
p544
I107
sVheight
p545
I38
sVactive
p546
I73
sVinitiative
p547
I36
sVpregnancy
p548
I16
sVloaded
p549
I11
sV250
p550
I12
sVorganisational
p551
I10
sVproceeded
p552
I11
sVangel
p553
I14
sVasks
p554
I20
sVeager
p555
I14
sVunion
p556
I166
sVremained
p557
I91
sVcriticised
p558
I13
sVtiny
p559
I55
sVhamilton
p560
I15
sVcommission
p561
I102
sVmuch
p562
I390
sVinterest
p563
I272
sVbasic
p564
I109
sVprivilege
p565
I16
sVparents
p566
I163
sVbasin
p567
I12
sVlovely
p568
I63
sVpreston
p569
I13
sVthrew
p570
I31
sVlife
p571
I566
sVdeeper
p572
I12
sVeastern
p573
I59
sVquantities
p574
I19
sVsunshine
p575
I13
sVworker
p576
I36
sVlocations
p577
I15
sVdave
p578
I27
sVsubstance
p579
I22
sVchild
p580
I244
sVworked
p581
I127
sVsad
p582
I34
sVcarriage
p583
I20
sVcommerce
p584
I16
sVexception
p585
I29
sVtank
p586
I33
sVpresidency
p587
I12
sVadministrative
p588
I35
sVorganisers
p589
I11
sVeconomies
p590
I19
sVremaining
p591
I12
sVemploy
p592
I17
sVcalcium
p593
I13
sVnear
p594
I16
sVneat
p595
I17
sVcats
p596
I16
sVbalance
p597
I81
sVstudy
p598
I30
sVremembering
p599
I15
sVseven
p600
I173
sVeconomics
p601
I29
sVmetropolitan
p602
I17
sVplayed
p603
I112
sVrepairs
p604
I11
sVis
p605
I9982
sVit
p606
I14
sVdefeated
p607
I15
sViv
p608
I28
sVii
p609
I88
sVplayer
p610
I57
sVeighteen
p611
I30
sVlate
p612
I41
sVin
p613
I13
sVmarch
p614
I11
sVignoring
p615
I12
sVmouse
p616
I18
sVdisappear
p617
I14
sVif
p618
I2369
sVgrown
p619
I43
sVdamaged
p620
I20
sVbottles
p621
I18
sVthings
p622
I424
sVmake
p623
I791
sVdemands
p624
I51
sVpotentially
p625
I24
sVdamages
p626
I22
sVbabies
p627
I25
sVgrows
p628
I13
sVeuropean
p629
I195
sVfairly
p630
I67
sVsmoke
p631
I12
sVgovernors
p632
I17
sVqualifications
p633
I23
sVworkforce
p634
I15
sVkit
p635
I18
sVdelight
p636
I18
sVrenaissance
p637
I11
sVownership
p638
I31
sVsupper
p639
I15
sVopportunity
p640
I103
sVtune
p641
I14
sVkid
p642
I16
sVbutter
p643
I21
sVprograms
p644
I18
sVsettled
p645
I39
sVvice-president
p646
I11
sVhon.
p647
I105
sVechoed
p648
I10
sVacademic
p649
I47
sVmaterials
p650
I68
sVqualities
p651
I25
sVconflict
p652
I56
sVclaims
p653
I37
sVcorporate
p654
I46
sVinvestments
p655
I15
sVleft
p656
I34
sVopinions
p657
I18
sVprotocol
p658
I10
sVconsciousness
p659
I26
sVreckoned
p660
I10
sVsporting
p661
I11
sVunfair
p662
I19
sVassigned
p663
I12
sVbirmingham
p664
I34
sVhuman
p665
I13
sVfacts
p666
I53
sVyep
p667
I13
sVyes
p668
I606
sVyet
p669
I337
sVprevious
p670
I123
sVbuyers
p671
I17
sVbelfast
p672
I36
sVcampaign
p673
I91
sVcandidate
p674
I40
sVphillips
p675
I12
sVease
p676
I11
sVhad
p677
I4452
sVemphasis
p678
I55
sVmagistrates
p679
I21
sVmacdonald
p680
I10
sVsquad
p681
I25
sVcollections
p682
I18
sVinnocent
p683
I21
sVprison
p684
I64
sVeast
p685
I128
sVhat
p686
I31
sVsurvival
p687
I31
sVposed
p688
I13
sVpossible
p689
I342
sVpossibly
p690
I73
sVbirth
p691
I52
sVwanting
p692
I24
sVshadow
p693
I30
sVunique
p694
I43
sVdreams
p695
I25
sVoccurring
p696
I13
sVdesire
p697
I51
sVpsychological
p698
I28
sVvisible
p699
I29
sVperforming
p700
I13
sVmanual
p701
I12
sValice
p702
I25
sVremind
p703
I17
sVpavement
p704
I14
sVsteps
p705
I67
sVbeneficial
p706
I14
sVright
p707
I169
sVold
p708
I544
sVcrowd
p709
I43
sVpeople
p710
I1241
sVcrown
p711
I51
sVsomehow
p712
I45
sVelderly
p713
I50
sVconsultants
p714
I16
sVdear
p715
I16
sValtered
p716
I16
sVenemies
p717
I15
sVchorus
p718
I10
sVsociology
p719
I20
sVtrace
p720
I11
sVfor
p721
I13
sVbottom
p722
I18
sVopposite
p723
I12
sVfox
p724
I14
sVcreative
p725
I25
sVarguing
p726
I18
sVcontinue
p727
I118
sVlandscape
p728
I33
sVknew
p729
I261
sVmeanings
p730
I15
sVbold
p731
I12
sVburn
p732
I12
sVpopular
p733
I106
sVconfrontation
p734
I10
sVdefensive
p735
I13
sVlosing
p736
I35
sVmanufacturing
p737
I42
sVsuper
p738
I16
sVfruit
p739
I41
sVdollars
p740
I17
sVcitizens
p741
I33
sVmagazine
p742
I47
sVdespair
p743
I13
sVafternoon
p744
I84
sVcommit
p745
I14
sVlacked
p746
I12
sVslightly
p747
I89
sVautomatically
p748
I28
sVfunctions
p749
I51
sVnerve
p750
I13
sVraised
p751
I95
sVm.
p752
I26
sVstatements
p753
I41
sVformerly
p754
I20
sVfacility
p755
I22
sVmaxwell
p756
I13
sVmarshall
p757
I15
sVintellectual
p758
I25
sVson
p759
I131
sVdown
p760
I98
sVrespectable
p761
I12
sVbeings
p762
I18
sVmagazines
p763
I17
sVraises
p764
I14
sVdoctrine
p765
I17
sVcardiff
p766
I18
sV1990s
p767
I10
sVreducing
p768
I29
sVdefendants
p769
I16
sVmethods
p770
I89
sVcommunists
p771
I12
sVamerica
p772
I103
sVfabric
p773
I21
sVsupport
p774
I97
sVsolicitors
p775
I26
sVwidth
p776
I12
sVjoseph
p777
I30
sVeditor
p778
I39
sVfraction
p779
I15
sVspring
p780
I55
sVjane
p781
I42
sVcall
p782
I60
sVhappy
p783
I117
sVflying
p784
I19
sVoffering
p785
I42
sVoffer
p786
I60
sVforming
p787
I18
sVlancaster
p788
I12
sVanalyse
p789
I13
sVlanding
p790
I18
sVford
p791
I22
sVtiming
p792
I17
sVfailure
p793
I78
sVyo
p794
I11
sVapproval
p795
I39
sVpowder
p796
I13
sVnov.
p797
I29
sVprotestant
p798
I11
sVurgent
p799
I22
sVinside
p800
I12
sVattached
p801
I36
sVlips
p802
I50
sVdevices
p803
I22
sVtell
p804
I307
sVjan.
p805
I31
sVgould
p806
I12
sVjan*
p807
I14
sVpanels
p808
I12
sVpropaganda
p809
I12
sVpassenger
p810
I20
sVadopt
p811
I25
sVproved
p812
I69
sVclassic
p813
I26
sVsteady
p814
I25
sVtournament
p815
I16
sVcovers
p816
I19
sVdrive
p817
I44
sVpredominantly
p818
I12
sVexist
p819
I54
sVaccounting
p820
I12
sVship
p821
I43
sVdealer
p822
I18
sVnegotiations
p823
I37
sVmerseyside
p824
I11
sVprotested
p825
I12
sVeventual
p826
I10
sVfloor
p827
I115
sVpopulations
p828
I15
sVgenerally
p829
I116
sVactor
p830
I20
sVflood
p831
I12
sVrole
p832
I182
sVambitious
p833
I15
sVdigital
p834
I20
sVdevelopers
p835
I12
sVsmell
p836
I12
sVroll
p837
I15
sV's
p838
I3490
sVmodels
p839
I53
sVdies
p840
I10
sVfelt
p841
I278
sVdiet
p842
I41
sVfell
p843
I101
sVinvested
p844
I13
sVand/or
p845
I19
sVprofessional
p846
I105
sVvariable
p847
I13
sV'm
p848
I658
sVweekend
p849
I63
sVdied
p850
I140
sVbillion
p851
I48
sVhappening
p852
I40
sVassume
p853
I41
sVdaily
p854
I14
sVjacket
p855
I30
sVmummy
p856
I26
sVtime
p857
I1542
sVpush
p858
I30
sVprofits
p859
I58
sVshop
p860
I102
sVmanaged
p861
I75
sVchain
p862
I37
sVwhoever
p863
I15
sVeldest
p864
I10
sVai~*
p865
I36
sVlaura
p866
I25
sVmild
p867
I16
sVmile
p868
I32
sVskin
p869
I69
sVchair
p870
I77
sVinvolved
p871
I96
sV93
p872
I13
sVballet
p873
I12
sVsuicide
p874
I18
sVdepend
p875
I35
sVtechnique
p876
I46
sVfather
p877
I239
sV0
p878
I26
sVfinally
p879
I130
sVunpleasant
p880
I13
sVmarks
p881
I28
sVsovereignty
p882
I12
sVretreat
p883
I10
sVshoot
p884
I15
sVstring
p885
I27
sVcheap
p886
I39
sVtends
p887
I24
sVintake
p888
I12
sVchoice
p889
I120
sVadvised
p890
I25
sVword
p891
I193
sVexact
p892
I22
sVfragments
p893
I14
sVminute
p894
I82
sVwore
p895
I30
sVdid
p896
I1434
sVdie
p897
I53
sVproposals
p898
I68
sVleave
p899
I22
sVsolved
p900
I12
sVsettle
p901
I25
sVminimal
p902
I14
sVteam
p903
I186
sVspeculation
p904
I17
sVround
p905
I28
sVunaware
p906
I12
sVshoe
p907
I11
sVprevent
p908
I68
sVspiritual
p909
I23
sVtalked
p910
I44
sVoccurrence
p911
I11
sVfindings
p912
I33
sVsigh
p913
I11
sVsign
p914
I25
sVuk
p915
I173
sVrun
p916
I47
sVtargets
p917
I26
sVadds
p918
I22
sVtroops
p919
I48
sVhewlett-packard
p920
I10
sVcelebrated
p921
I10
sVfavour
p922
I24
sVcurrent
p923
I133
sVremembered
p924
I54
sVsuspect
p925
I20
sVinternational
p926
I221
sVfalling
p927
I44
sVground
p928
I154
sVboost
p929
I10
sVfilled
p930
I52
sVera
p931
I21
sVprocessing
p932
I30
sVjury
p933
I23
sVbloke
p934
I13
sVhonour
p935
I22
sVfuneral
p936
I21
sVhenry
p937
I74
sVfrench
p938
I35
sVunderstanding
p939
I19
sVyards
p940
I37
sVaddress
p941
I20
sValone
p942
I54
sValong
p943
I51
sVwait
p944
I84
sVbox
p945
I88
sVpassengers
p946
I26
sVcanadian
p947
I14
sVbrilliant
p948
I35
sVshift
p949
I15
sVstudied
p950
I39
sVwherever
p951
I23
sVcommonly
p952
I26
sVbow
p953
I10
sVexploitation
p954
I13
sVsuggestion
p955
I31
sV~na*
p956
I150
sVbob
p957
I40
sVstudies
p958
I136
sVgenuinely
p959
I14
sVteenage
p960
I11
sVtasks
p961
I37
sVlove
p962
I86
sVmerely
p963
I76
sVprefer
p964
I37
sVlogical
p965
I23
sVbloody
p966
I20
sVreferee
p967
I11
sVflexibility
p968
I20
sVcarol
p969
I10
sVhotels
p970
I24
sVsympathetic
p971
I15
sVwealth
p972
I38
sVworking
p973
I38
sVsake
p974
I32
sVpositive
p975
I83
sVangry
p976
I42
sVvisit
p977
I50
sVtightly
p978
I17
sVfrance
p979
I123
sVexplicitly
p980
I13
sVopposed
p981
I19
sVwondering
p982
I25
sVfilms
p983
I35
sVscope
p984
I34
sVtheoretical
p985
I30
sVwicked
p986
I11
sVintroducing
p987
I18
sVsharing
p988
I21
sVafford
p989
I45
sVacceptable
p990
I36
sVapparent
p991
I53
sVooh
p992
I46
sVvalidity
p993
I14
sVvisual
p994
I34
sVappendix
p995
I18
sVeverywhere
p996
I32
sVvirtue
p997
I19
sVeffort
p998
I78
sVbehalf
p999
I13
sVfly
p1000
I29
sVinvolve
p1001
I42
sVvalued
p1002
I13
sV10,000
p1003
I12
sVavoiding
p1004
I14
sVoriginally
p1005
I45
sVpretend
p1006
I12
sVabortion
p1007
I12
sVsoul
p1008
I30
sVbelieves
p1009
I40
sVreviews
p1010
I10
sVsoup
p1011
I14
sVprinting
p1012
I13
sVvalues
p1013
I75
sVroyal
p1014
I147
sVfollowing
p1015
I12
sVmaking
p1016
I14
sVarrive
p1017
I29
sVadmired
p1018
I11
sVcrazy
p1019
I18
sVkenneth
p1020
I16
sVpredict
p1021
I14
sVconfused
p1022
I19
sVagent
p1023
I43
sVsample
p1024
I44
sVcouncil
p1025
I313
sVallowed
p1026
I143
sVdennis
p1027
I15
sVevidently
p1028
I15
sVpink
p1029
I30
sVmonitoring
p1030
I11
sVwinter
p1031
I71
sVdivided
p1032
I40
sVpine
p1033
I10
sVchemical
p1034
I11
sVtill
p1035
I24
sVsunday
p1036
I93
sVs.
p1037
I19
sVpure
p1038
I34
sVpint
p1039
I12
sVedinburgh
p1040
I60
sVstaying
p1041
I28
sVdesigner
p1042
I19
sVcoming
p1043
I11
sVcritics
p1044
I27
sVmax
p1045
I13
sVspot
p1046
I41
sVapplications
p1047
I63
sVmembership
p1048
I53
sVexplored
p1049
I12
sVmad
p1050
I31
sVdate
p1051
I158
sVsuch
p1052
I321
sVrevealed
p1053
I53
sVgrow
p1054
I55
sVman
p1055
I614
sVstress
p1056
I10
sVnatural
p1057
I142
sVvarieties
p1058
I15
sVsectors
p1059
I23
sVconscious
p1060
I31
sVmaybe
p1061
I105
sVapplicant
p1062
I12
sVborrowing
p1063
I10
sVst
p1064
I13
sVtale
p1065
I21
sVenquiry
p1066
I18
sVswitch
p1067
I16
sVso
p1068
I17
sVdeposit
p1069
I17
sVafrican
p1070
I43
sVbasket
p1071
I13
sVdefinitions
p1072
I13
sVpulled
p1073
I70
sVgesture
p1074
I20
sVshield
p1075
I10
sVseeing
p1076
I61
sVgradual
p1077
I11
sVpointed
p1078
I58
sVwishing
p1079
I15
sVunacceptable
p1080
I12
sVyears
p1081
I902
sVstability
p1082
I21
sVcourse
p1083
I187
sVexperiments
p1084
I29
sVterrace
p1085
I18
sVpitch
p1086
I27
sVargued
p1087
I65
sVtendency
p1088
I29
sVconstituted
p1089
I10
sVlimbs
p1090
I11
sVpolice
p1091
I278
sVthumb
p1092
I11
sVinteresting
p1093
I96
sVjim
p1094
I43
sVamazing
p1095
I19
sVcouncillor
p1096
I25
sVyorkshire
p1097
I44
sVattraction
p1098
I15
sVsuspicion
p1099
I16
sVconstitutes
p1100
I10
sVpolicy
p1101
I260
sVmail
p1102
I33
sVmain
p1103
I245
sVtory
p1104
I34
sVpetition
p1105
I12
sVinstantly
p1106
I16
sVfinance
p1107
I20
sVthereby
p1108
I27
sVcivilian
p1109
I12
sVmatches
p1110
I23
sVkiller
p1111
I14
sVsooner
p1112
I18
sVnation
p1113
I44
sVrecords
p1114
I71
sVtouching
p1115
I10
sVarriving
p1116
I16
sVsorted
p1117
I13
sVkilled
p1118
I86
sVmaintaining
p1119
I21
sVmatched
p1120
I14
sVshouted
p1121
I29
sVbeach
p1122
I38
sVartist
p1123
I41
sVproteins
p1124
I13
sVestablishing
p1125
I21
sVpeasant
p1126
I16
sVrock
p1127
I64
sVamnesty
p1128
I11
sVquarter
p1129
I74
sVdata/datum
p1130
I182
sVsquare
p1131
I26
sVlatin
p1132
I22
sVreceipt
p1133
I12
sVft
p1134
I12
sVconventions
p1135
I12
sVentering
p1136
I22
sVsexually
p1137
I10
sVgirl
p1138
I158
sVsummary
p1139
I28
sVneighbourhood
p1140
I15
sVelizabeth
p1141
I36
sVcanada
p1142
I29
sVliving
p1143
I36
sVcanvas
p1144
I11
sVjackson
p1145
I20
sVinterference
p1146
I14
sVrational
p1147
I23
sVlad
p1148
I20
sVseriously
p1149
I57
sVinvestigation
p1150
I51
sVemerged
p1151
I38
sVdioxide
p1152
I14
sVsuggesting
p1153
I25
sVformula
p1154
I27
sVcorrect
p1155
I59
sVassurance
p1156
I18
sVexactly
p1157
I107
sVafter
p1158
I233
sVmonster
p1159
I13
sVsheffield
p1160
I21
sVmillion
p1161
I245
sVincentives
p1162
I10
sVgoverning
p1163
I10
sVquite
p1164
I412
sVrecordings
p1165
I11
sVstatistics
p1166
I32
sVcomplicated
p1167
I29
sVlump
p1168
I11
sVbesides
p1169
I18
sVpoems
p1170
I16
sVkeith
p1171
I28
sVseventy
p1172
I29
sVadvance
p1173
I36
sVtraining
p1174
I11
sVlanguage
p1175
I188
sVministry
p1176
I50
sVprogramming
p1177
I11
sVmodest
p1178
I23
sVthing
p1179
I352
sVmassive
p1180
I44
sVroutes
p1181
I21
sVstar
p1182
I61
sVthink
p1183
I916
sVwaited
p1184
I40
sVfirst
p1185
I1193
sVemotion
p1186
I15
sVcheese
p1187
I26
sVsaving
p1188
I10
sVreveals
p1189
I16
sVspoken
p1190
I28
sVclause
p1191
I36
sVrachel
p1192
I22
sVsafety
p1193
I86
sVone
p1194
I953
sVamericans
p1195
I28
sVsubmit
p1196
I12
sVsuspended
p1197
I18
sVspanish
p1198
I34
sVcarry
p1199
I101
sVcorporations
p1200
I10
sVsounds
p1201
I26
sVopen
p1202
I76
sVcity
p1203
I231
sVlittle
p1204
I45
sVlap
p1205
I13
sVslept
p1206
I18
sVanyone
p1207
I150
sVindicate
p1208
I41
sV2
p1209
I344
sVdraft
p1210
I26
sValfred
p1211
I12
sVstructures
p1212
I44
sVspeaking
p1213
I54
sVmining
p1214
I15
sVallegedly
p1215
I10
sVmoscow
p1216
I30
sVcontinuous
p1217
I26
sVproving
p1218
I11
sVaccurately
p1219
I14
sVharbour
p1220
I18
sVridiculous
p1221
I19
sVspecialists
p1222
I14
sVrepresenting
p1223
I23
sVboyfriend
p1224
I11
sV11
p1225
I92
sV10
p1226
I186
sV13
p1227
I76
sV12
p1228
I121
sV15
p1229
I109
sVbit*
p1230
I137
sV17
p1231
I63
sV16
p1232
I81
sVdepressed
p1233
I15
sV18
p1234
I81
sVvictorian
p1235
I25
sVprotected
p1236
I20
sVventure
p1237
I19
sVwere
p1238
I3227
sVasleep
p1239
I25
sVsophie
p1240
I13
sVrussia
p1241
I43
sVprospect
p1242
I32
sVmanufacture
p1243
I13
sVaddressing
p1244
I11
sVillness
p1245
I33
sVsam
p1246
I31
sVappreciate
p1247
I26
sVtopics
p1248
I19
sVturned
p1249
I246
sVargument
p1250
I83
sVvoices
p1251
I24
sVsay
p1252
I679
sVconspiracy
p1253
I11
sVburied
p1254
I24
sVallen
p1255
I18
sVturner
p1256
I11
sVborough
p1257
I19
sVsaw
p1258
I261
sVsurgery
p1259
I27
sVkevin
p1260
I23
sVsat
p1261
I121
sVcoach
p1262
I29
sVspeakers
p1263
I22
sVfashionable
p1264
I12
sVefficient
p1265
I40
sVaside
p1266
I36
sVshocked
p1267
I15
sVinstructed
p1268
I12
sVnote
p1269
I46
sVintends
p1270
I11
sVpotential
p1271
I46
sVtake
p1272
I715
sVinterior
p1273
I13
sVdestroy
p1274
I20
sVconcern
p1275
I96
sVcollapsed
p1276
I16
sVchannel
p1277
I40
sV200
p1278
I35
sVprinter
p1279
I17
sVpain
p1280
I73
sVcapitalist
p1281
I21
sVtheatre
p1282
I59
sVinvestigations
p1283
I17
sVtrack
p1284
I57
sVincidence
p1285
I17
sVresulted
p1286
I29
sVpaid
p1287
I144
sVassault
p1288
I22
sV20%
p1289
I11
sVprinted
p1290
I13
sVsheets
p1291
I24
sVremarks
p1292
I19
sVknee
p1293
I20
sVpages
p1294
I44
sVlawn
p1295
I11
sVoperate
p1296
I40
sVespecially
p1297
I177
sVsurprising
p1298
I35
sV~n~*
p1299
I42
sVaverage
p1300
I36
sVphil
p1301
I20
sVconstable
p1302
I18
sVsale
p1303
I88
sVmanaging
p1304
I11
sVjumped
p1305
I24
sVatlantic
p1306
I22
sVsalt
p1307
I29
sVsurface
p1308
I90
sVlaws
p1309
I48
sVprecise
p1310
I29
sVwalking
p1311
I17
sVshot
p1312
I33
sVsurplus
p1313
I13
sVshow
p1314
I87
sVcontemporary
p1315
I44
sVsites
p1316
I58
sVbright
p1317
I54
sVdrawings
p1318
I23
sVcorner
p1319
I75
sVaggressive
p1320
I19
sVlabel
p1321
I17
sVimagined
p1322
I17
sVfibre
p1323
I15
sVslow
p1324
I48
sVcommittee
p1325
I190
sVdick
p1326
I13
sVbehind
p1327
I34
sVdull
p1328
I18
sVliberation
p1329
I18
sVtears
p1330
I43
sVblack
p1331
I11
sVequipped
p1332
I16
sVenthusiasm
p1333
I30
sVcaroline
p1334
I19
sVawareness
p1335
I36
sVdispute
p1336
I30
sVget
p1337
I995
sVcontracts
p1338
I44
sVassistant
p1339
I18
sVemployers
p1340
I42
sVnearly
p1341
I115
sVsecondary
p1342
I43
sVprime
p1343
I121
sVresource
p1344
I22
sVskull
p1345
I11
sVsettings
p1346
I10
sVmiddle-class
p1347
I13
sVborrow
p1348
I15
sVyield
p1349
I11
sVmorning
p1350
I211
sVstupid
p1351
I33
sVroger
p1352
I26
sVsource
p1353
I91
sVbombs
p1354
I12
sVliable
p1355
I22
sVwhere
p1356
I458
sVworrying
p1357
I11
sVvision
p1358
I42
sVdeclared
p1359
I43
sVthesis
p1360
I13
sVeighteenth
p1361
I20
sVseat
p1362
I62
sVrelative
p1363
I10
sVj.
p1364
I42
sVjapan
p1365
I65
sVcalendar
p1366
I11
sVdeliberate
p1367
I13
sVwonder
p1368
I19
sVvertical
p1369
I18
sVharvey
p1370
I12
sVrepresentatives
p1371
I43
sVsponsorship
p1372
I12
sVboundaries
p1373
I24
sVenough
p1374
I82
sVun
p1375
I44
sVbureau
p1376
I14
sVaffecting
p1377
I17
sVreading
p1378
I12
sVacross
p1379
I35
sVwhispered
p1380
I25
sVjobs
p1381
I97
sVaugust
p1382
I79
sVparent
p1383
I37
sVparental
p1384
I13
sVscreen
p1385
I48
sVsupermarket
p1386
I11
sVkilling
p1387
I11
sVconcentrate
p1388
I31
sVawards
p1389
I23
sVconcentrated
p1390
I24
sVblame
p1391
I23
sVdates
p1392
I19
sVrugby
p1393
I29
sVmany
p1394
I902
sVcars
p1395
I75
sVtrades
p1396
I12
sVaccording
p1397
I157
sVsweat
p1398
I11
sVs
p1399
I10
sVloudly
p1400
I11
sVdisappointment
p1401
I15
sVspare
p1402
I10
sVholders
p1403
I12
sVexpression
p1404
I75
sVallowance
p1405
I22
sVstance
p1406
I17
sVamong
p1407
I229
sVcancer
p1408
I42
sVchristie
p1409
I12
sVtwin
p1410
I16
sVgrants
p1411
I19
sVstretched
p1412
I20
sVarticle
p1413
I68
sVordered
p1414
I49
sVconsiders
p1415
I12
sVboat
p1416
I54
sVadults
p1417
I33
sVconsidering
p1418
I26
sVsensible
p1419
I28
sVarts
p1420
I53
sVcapable
p1421
I49
sVstretch
p1422
I12
sVwest
p1423
I127
sVlocally
p1424
I18
sVmark
p1425
I25
sVbreath
p1426
I51
sVworkshop
p1427
I18
sVpractised
p1428
I10
sVcombined
p1429
I17
sVmotives
p1430
I10
sVborders
p1431
I12
sVcovering
p1432
I29
sVmarx
p1433
I19
sVmary
p1434
I71
sVwants
p1435
I89
sVenable
p1436
I48
sVshopping
p1437
I29
sVthousand
p1438
I104
sVformed
p1439
I70
sVobserve
p1440
I17
sVwake
p1441
I12
sVdeclaration
p1442
I20
sVconsequently
p1443
I25
sVformer
p1444
I170
sVthose
p1445
I888
sVsound
p1446
I12
sVconsultant
p1447
I16
sVworried
p1448
I38
sVconsulted
p1449
I12
sVn't
p1450
I3328
sVpolicies
p1451
I88
sVresidence
p1452
I17
sVnewspaper
p1453
I50
sVsituation
p1454
I160
sVconstituency
p1455
I19
sVmargin
p1456
I15
sValuminium
p1457
I10
sVconferences
p1458
I12
sVthen
p1459
I12
sVcharacteristics
p1460
I38
sVengaged
p1461
I27
sVthem
p1462
I1733
sVsleeping
p1463
I11
sVmiddle
p1464
I59
sVsudden
p1465
I39
sVhis*
p1466
I49
sVprotein
p1467
I28
sVtechnology
p1468
I118
sVfame
p1469
I12
sVmovements
p1470
I44
sVspaces
p1471
I15
sVbags
p1472
I22
sVdifferent
p1473
I484
sVmissiles
p1474
I10
sVpat
p1475
I18
sVharsh
p1476
I15
sVdoctor
p1477
I105
sVpay
p1478
I45
sVparliament
p1479
I97
sVwoodland
p1480
I10
sVtour
p1481
I57
sVsame
p1482
I615
sVenquiries
p1483
I17
sVspeech
p1484
I78
sVarguments
p1485
I38
sVstepped
p1486
I29
sVwimbledon
p1487
I13
sVdated
p1488
I13
sVbreakdown
p1489
I15
sVoil
p1490
I102
sVsickness
p1491
I12
sVassist
p1492
I25
sVcompanion
p1493
I17
sVallocation
p1494
I18
sVrunning
p1495
I14
sVedges
p1496
I17
sVadvertisement
p1497
I12
sVclimbing
p1498
I13
sVtotally
p1499
I58
sVwheels
p1500
I16
sVpupil
p1501
I23
sVlargely
p1502
I73
sVroughly
p1503
I23
sVamounts
p1504
I25
sVcosts
p1505
I32
sVsolve
p1506
I19
sVbottle
p1507
I41
sVtrains
p1508
I19
sVdimension
p1509
I16
sVconsisted
p1510
I13
sVsummer
p1511
I113
sVoutdoor
p1512
I11
sVaffair
p1513
I33
sVbeing
p1514
I28
sVmoney
p1515
I374
sVrest
p1516
I20
sVaspect
p1517
I43
sVexhibitions
p1518
I13
sVweekly
p1519
I23
sVrover
p1520
I13
sVapplication
p1521
I100
sVinstrument
p1522
I26
sVsamuel
p1523
I13
sVpile
p1524
I17
sV4
p1525
I201
sVboards
p1526
I28
sVextensive
p1527
I41
sVcareers
p1528
I17
sVgrip
p1529
I17
sVaspects
p1530
I73
sVaround
p1531
I215
sVjeans
p1532
I13
sVsums
p1533
I15
sVdark
p1534
I31
sVtraffic
p1535
I67
sVpreference
p1536
I22
sVfound*
p1537
I489
sVworld
p1538
I590
sVaiming
p1539
I10
sVdisappointed
p1540
I21
sVvague
p1541
I15
sVdare
p1542
I12
sVsatisfaction
p1543
I29
sVintel
p1544
I12
sVstranger
p1545
I13
sVidentifying
p1546
I15
sVmaintained
p1547
I39
sVserves
p1548
I17
sV've
p1549
I891
sVfacing
p1550
I38
sVchamber
p1551
I29
sVaudience
p1552
I55
sVeither
p1553
I58
sVclay
p1554
I15
sVserved
p1555
I64
sV65
p1556
I17
sVfulfil
p1557
I12
sVsatisfactory
p1558
I22
sVsuperintendent
p1559
I10
sVjews
p1560
I18
sVimprisonment
p1561
I15
sVlebanon
p1562
I11
sVspecified
p1563
I12
sVimages
p1564
I36
sVracial
p1565
I14
sVdivine
p1566
I13
sVjoan
p1567
I19
sVthinks
p1568
I39
sVgross
p1569
I23
sVclare
p1570
I21
sVdimensions
p1571
I14
sVconfirm
p1572
I26
sVmemories
p1573
I26
sVtube
p1574
I20
sVdisciplinary
p1575
I11
sVcritical
p1576
I58
sVexit
p1577
I10
sVcustody
p1578
I15
sVexpressing
p1579
I14
sVmoderate
p1580
I14
sVknife
p1581
I27
sVrefer
p1582
I38
sVmeasuring
p1583
I14
sVmuttered
p1584
I16
sVscientific
p1585
I59
sVpower
p1586
I318
sVintimate
p1587
I11
sVseconds
p1588
I42
sVwhose
p1589
I198
sVfitness
p1590
I16
sVnotable
p1591
I16
sVunusual
p1592
I41
sVnotably
p1593
I24
sVbroken
p1594
I29
sVleadership
p1595
I48
sVrefers
p1596
I20
sVmanufacturer
p1597
I18
sVhelping
p1598
I39
sVstone
p1599
I79
sVorigins
p1600
I18
sVpackage
p1601
I57
sVisland
p1602
I66
sVindustry
p1603
I198
sVviolence
p1604
I56
sVmeaning
p1605
I15
sVside
p1606
I335
sVpractical
p1607
I77
sVairline
p1608
I11
sVpockets
p1609
I16
sVact
p1610
I59
sVmixed
p1611
I20
sVmean
p1612
I25
sVroad
p1613
I273
sVquietly
p1614
I41
sVlands
p1615
I21
sVburning
p1616
I13
sVimage
p1617
I75
sVskilled
p1618
I18
sVessex
p1619
I23
sVreferences
p1620
I20
sVlively
p1621
I15
sVhomeless
p1622
I11
sVparties
p1623
I127
sVvaluable
p1624
I39
sVtechnically
p1625
I10
sVcared
p1626
I13
sVlegacy
p1627
I11
sVhey
p1628
I18
sVmeals
p1629
I24
sVcouncils
p1630
I35
sVslopes
p1631
I10
sVgain
p1632
I15
sVemergence
p1633
I12
sVcomplete
p1634
I34
sVdangers
p1635
I16
sVstrikes
p1636
I11
sVprinciples
p1637
I57
sVmick
p1638
I15
sVsurvived
p1639
I27
sVlinguistic
p1640
I25
sVtechnologies
p1641
I15
sVlevel
p1642
I25
sVwith
p1643
I6575
sVbuying
p1644
I41
sVhandsome
p1645
I17
sVpull
p1646
I40
sVrush
p1647
I13
sVoctober
p1648
I106
sVarranged
p1649
I40
sVromantic
p1650
I21
sVmonopoly
p1651
I16
sVnearest
p1652
I20
sVlocal
p1653
I18
sVdirty
p1654
I26
sVpolitically
p1655
I17
sVagree
p1656
I82
sVaffection
p1657
I14
sVdetailed
p1658
I60
sVgone
p1659
I195
sVjohnny
p1660
I15
sVcertain
p1661
I220
sVam
p1662
I256
sVal
p1663
I10
sVwartime
p1664
I10
sVgeneral
p1665
I43
sVnavy
p1666
I20
sVas
p1667
I13
sVeducated
p1668
I13
sVat
p1669
I29
sVfile
p1670
I56
sVlaboratory
p1671
I27
sVgirlfriend
p1672
I12
sVwatched
p1673
I67
sVgon~
p1674
I125
sVhorse
p1675
I77
sVeliot
p1676
I19
sVfilm
p1677
I101
sVcream
p1678
I31
sVagain
p1679
I561
sVassessing
p1680
I14
sVideally
p1681
I12
sVpersonnel
p1682
I33
sVdrivers
p1683
I26
sVvocational
p1684
I10
sVtight
p1685
I11
sVsummit
p1686
I25
sVspatial
p1687
I12
sVoffered
p1688
I106
sVgloucestershire
p1689
I15
sVcongress
p1690
I55
sVstudents
p1691
I146
sVreached
p1692
I124
sVa.
p1693
I28
sVgifts
p1694
I17
sVimportant
p1695
I392
sVaccounts
p1696
I65
sVterry
p1697
I25
sVtackle
p1698
I16
sVdecorated
p1699
I11
sVgastric
p1700
I21
sVremote
p1701
I29
sVassets
p1702
I43
sVacids
p1703
I10
sVmask
p1704
I11
sVhaving
p1705
I353
sVinvestigated
p1706
I15
sVdramatic
p1707
I39
sVmass
p1708
I35
sVadam
p1709
I35
sVkuwait
p1710
I16
sVresolution
p1711
I37
sVoriginal
p1712
I108
sVexternal
p1713
I49
sVrepresent
p1714
I46
sVcolleges
p1715
I25
sVconsider
p1716
I117
sVfounder
p1717
I12
sVaids
p1718
I32
sVcaused
p1719
I96
sVhands
p1720
I188
sVdollar
p1721
I20
sVfounded
p1722
I27
sVtours
p1723
I10
sVwelfare
p1724
I48
sVtalks
p1725
I60
sVpartial
p1726
I18
sVexpressions
p1727
I13
sVallowances
p1728
I13
sVreasoning
p1729
I10
sVcauses
p1730
I20
sVreluctant
p1731
I20
sVcontent
p1732
I16
sVhunting
p1733
I18
sVtv
p1734
I65
sVlaughing
p1735
I24
sVto
p1736
I9343
sVtail
p1737
I27
sVaward
p1738
I148
sVpreserved
p1739
I16
sV14
p1740
I80
sVsmile
p1741
I11
sVenjoying
p1742
I22
sVpassed
p1743
I107
sVpaying
p1744
I46
sVappointment
p1745
I45
sVreturned
p1746
I103
sVstraightforward
p1747
I20
sVpuzzled
p1748
I10
sVhughes
p1749
I17
sVsaved
p1750
I32
sVdiary
p1751
I20
sVfall
p1752
I41
sVdifference
p1753
I113
sVcondition
p1754
I83
sVcheerful
p1755
I12
sVnorfolk
p1756
I14
sVcable
p1757
I18
sVmothers
p1758
I33
sVmarvellous
p1759
I18
sVlaying
p1760
I13
sVjoined
p1761
I72
sVlarge
p1762
I337
sVsang
p1763
I12
sVsand
p1764
I30
sVadjust
p1765
I11
sVharry
p1766
I46
sVsmall
p1767
I435
sVbiological
p1768
I20
sVsank
p1769
I11
sVmaggie
p1770
I27
sVpolls
p1771
I11
sVpenalties
p1772
I11
sVpast
p1773
I21
sV19
p1774
I53
sVzero
p1775
I15
sVtitles
p1776
I21
sVdisplays
p1777
I11
sVlawyer
p1778
I22
sVpass
p1779
I18
sVfurther
p1780
I144
sVmarginal
p1781
I22
sVinvestment
p1782
I109
sVcreatures
p1783
I21
sVhandicapped
p1784
I10
sVmaterial
p1785
I131
sVdefence
p1786
I116
sVstood
p1787
I133
sVrichard
p1788
I100
sVclock
p1789
I29
sVsection
p1790
I186
sViraqi
p1791
I17
sVscientists
p1792
I35
sVnurse
p1793
I32
sVchelsea
p1794
I15
sVmethod
p1795
I91
sVcontrast
p1796
I62
sVmovement
p1797
I135
sVfull
p1798
I281
sVpromising
p1799
I13
sVcomponent
p1800
I26
sVrevenge
p1801
I11
sVhours
p1802
I189
sVcancelled
p1803
I12
sVdisastrous
p1804
I11
sVoperating
p1805
I27
sVinvestigating
p1806
I14
sVtreasury
p1807
I26
sVnovember
p1808
I94
sVstandard
p1809
I56
sVlegend
p1810
I12
sVadmits
p1811
I13
sVsearch
p1812
I12
sVbible
p1813
I20
sVcompliance
p1814
I13
sVexperience
p1815
I25
sVsignificantly
p1816
I42
sVprior
p1817
I12
sVairport
p1818
I29
sVsimply
p1819
I177
sVmisery
p1820
I13
sVaction
p1821
I221
sVcorps
p1822
I12
sVnarrow
p1823
I49
sVvia
p1824
I45
sVfollowed
p1825
I149
sVours
p1826
I17
sVbuses
p1827
I15
sVafrica
p1828
I78
sVregiment
p1829
I12
sVmanage
p1830
I41
sVarmed
p1831
I11
sVmistress
p1832
I12
sVselect
p1833
I12
sVreadily
p1834
I28
sVliterary
p1835
I34
sVshareholders
p1836
I31
sVattendance
p1837
I18
sVeye
p1838
I95
sVoxfordshire
p1839
I16
sVobjectives
p1840
I43
sVdestination
p1841
I11
sVtwo
p1842
I1561
sVcomparing
p1843
I11
sVde*
p1844
I19
sV6
p1845
I134
sVkick
p1846
I13
sVachieving
p1847
I18
sVmore
p1848
I699
sVdiamond
p1849
I11
sVdoor
p1850
I254
sVinitiated
p1851
I12
sVsubstances
p1852
I13
sVcompany
p1853
I401
sVleonard
p1854
I10
sVtested
p1855
I26
sVlanded
p1856
I18
sVcontrolling
p1857
I17
sVparticular
p1858
I223
sVfoundations
p1859
I14
sVobjections
p1860
I13
sVnineteen
p1861
I48
sVtown
p1862
I180
sVkeeping
p1863
I60
sVgravel
p1864
I12
sVdrank
p1865
I14
sVhour
p1866
I113
sVstrain
p1867
I22
sVscience
p1868
I106
sVdes
p1869
I12
sVfriendly
p1870
I39
sVguards
p1871
I15
sVremain
p1872
I90
sVparagraph
p1873
I26
sVindicating
p1874
I15
sVevolved
p1875
I12
sVlearn
p1876
I83
sVknocked
p1877
I23
sVstrategies
p1878
I27
sVmale
p1879
I22
sVmarble
p1880
I14
sVbeautiful
p1881
I87
sVimperial
p1882
I24
sVcompare
p1883
I24
sVmedical
p1884
I93
sVstated
p1885
I48
sVlives
p1886
I27
sVgalleries
p1887
I12
sVsuggestions
p1888
I21
sVaccept
p1889
I98
sVautumn
p1890
I39
sVsphere
p1891
I13
sVminimum
p1892
I20
sVnumbers
p1893
I113
sVpurchased
p1894
I16
sVsense
p1895
I213
sVsharp
p1896
I44
sVdress
p1897
I42
sVaxis
p1898
I10
sVhuge
p1899
I79
sVrespective
p1900
I12
sVunexpected
p1901
I21
sVawkward
p1902
I16
sVacts
p1903
I14
sVhugh
p1904
I21
sVdismissed
p1905
I30
sVeveryday
p1906
I21
sVmaps
p1907
I17
sVdisturbed
p1908
I12
sVearnings
p1909
I32
sVsacred
p1910
I13
sVoccur
p1911
I56
sVcreature
p1912
I19
sVwaved
p1913
I15
sVplant
p1914
I74
sVbedrooms
p1915
I16
sVplans
p1916
I20
sVcountryside
p1917
I39
sVsuppose
p1918
I107
sVadvice
p1919
I104
sVsignature
p1920
I11
sVplane
p1921
I34
sVdirector
p1922
I122
sVblood
p1923
I101
sVfaculty
p1924
I13
sVgates
p1925
I19
sVappealed
p1926
I14
sVresponse
p1927
I100
sVrefuse
p1928
I22
sVcoat
p1929
I34
sVregister
p1930
I10
sVcoal
p1931
I51
sVbroadcasting
p1932
I16
sVresponsibility
p1933
I93
sVfundamental
p1934
I45
sVpleasure
p1935
I52
sVneed*
p1936
I33
sVplaying
p1937
I101
sVreplied
p1938
I56
sVinfant
p1939
I17
sVpassages
p1940
I11
sVbowl
p1941
I23
sVinstalled
p1942
I20
sVperformance
p1943
I130
sVattitude
p1944
I60
sVpaper
p1945
I173
sVscott
p1946
I32
sVdestruction
p1947
I24
sVsigns
p1948
I47
sVexistence
p1949
I66
sVsmiling
p1950
I22
sVsuffer
p1951
I35
sVits
p1952
I1632
sVroots
p1953
I25
sV24
p1954
I65
sV25
p1955
I77
sV26
p1956
I44
sV27
p1957
I43
sVrapidly
p1958
I46
sV21
p1959
I56
sV22
p1960
I53
sV23
p1961
I48
sVgreatly
p1962
I33
sV28
p1963
I50
sV29
p1964
I40
sVsymptoms
p1965
I31
sVdetected
p1966
I16
sVfollowers
p1967
I10
sVtravelling
p1968
I24
sVsauce
p1969
I14
sVlandlord
p1970
I27
sVcolleague
p1971
I17
sVsomeone
p1972
I187
sVsisters
p1973
I20
sVseeking
p1974
I46
sVpropose
p1975
I14
sVmales
p1976
I22
sVsocially
p1977
I15
sVencouraging
p1978
I21
sVwalls
p1979
I60
sVcompound
p1980
I11
sVoxford
p1981
I86
sVseparately
p1982
I18
sVcomplain
p1983
I14
sVassociation
p1984
I115
sVmystery
p1985
I22
sVeasily
p1986
I99
sVdocument
p1987
I51
sVclergy
p1988
I14
sVhook
p1989
I11
sValways
p1990
I462
sVisle
p1991
I14
sVcourses
p1992
I80
sVhabits
p1993
I17
sVpan
p1994
I12
sVpositions
p1995
I39
sVbiscuits
p1996
I10
sVports
p1997
I11
sVreactions
p1998
I21
sVharm
p1999
I23
sVeveryone
p2000
I133
sVengland
p2001
I231
sVmental
p2002
I58
sVhouse
p2003
I501
sVfish
p2004
I103
sVhard
p2005
I71
sVreduce
p2006
I71
sVidea
p2007
I217
sVextended
p2008
I14
sVmeasurement
p2009
I17
sVoperation
p2010
I100
sVinsurance
p2011
I71
sVreally
p2012
I481
sVtry
p2013
I11
sVinitiatives
p2014
I19
sVflower
p2015
I22
sVfunding
p2016
I39
sVpsychology
p2017
I26
sVblacks
p2018
I14
sVshah
p2019
I10
sVresearch
p2020
I14
sVparticipants
p2021
I22
sVministerial
p2022
I10
sVprint
p2023
I10
sVdarling
p2024
I23
sVevaluation
p2025
I28
sVoccurs
p2026
I33
sVbelief
p2027
I51
sVrisen
p2028
I17
sVlawrence
p2029
I22
sV1920s
p2030
I11
sVpleasant
p2031
I27
sVdifficulty
p2032
I63
sVqualify
p2033
I13
sVmembers
p2034
I297
sVimagine
p2035
I61
sVbacked
p2036
I25
sVbeginning
p2037
I53
sVdefinition
p2038
I48
sVpairs
p2039
I21
sVretained
p2040
I24
sVbarbara
p2041
I17
sVcomputers
p2042
I36
sVenforce
p2043
I10
sVconducted
p2044
I30
sVharris
p2045
I19
sVtestament
p2046
I12
sVcastle
p2047
I47
sVpilots
p2048
I11
sVreinforced
p2049
I13
sVcopper
p2050
I18
sVmajor
p2051
I11
sVgazed
p2052
I11
sVslipped
p2053
I26
sVgirls
p2054
I96
sVthereafter
p2055
I14
sVnumber
p2056
I493
sVpreservation
p2057
I11
sVinstances
p2058
I17
sVpop
p2059
I10
sVmurmured
p2060
I19
sVdone
p2061
I354
sVwages
p2062
I37
sVcups
p2063
I12
sVguess
p2064
I24
sVheads
p2065
I52
sVguest
p2066
I23
sVjet
p2067
I13
sVintroduction
p2068
I66
sVdivorce
p2069
I17
sVbay
p2070
I34
sVthreatening
p2071
I17
sVleast
p2072
I45
sVpaint
p2073
I13
sVregulation
p2074
I26
sVassumption
p2075
I31
sVmentally
p2076
I20
sVcalculations
p2077
I12
sVcompromise
p2078
I16
sVmolecular
p2079
I13
sVlease
p2080
I21
sVmuscles
p2081
I20
sVrelationship
p2082
I129
sVjohnson
p2083
I32
sVneedle
p2084
I13
sVpark
p2085
I103
sVinterviewed
p2086
I15
sVimmediate
p2087
I61
sVappreciation
p2088
I13
sVpart
p2089
I496
sVdemonstrations
p2090
I15
sVlos nop-
p2091
I12
sVconsult
p2092
I12
sVbelieve
p2093
I212
sVstairs
p2094
I36
sVgrace
p2095
I15
sVjohn
p2096
I328
sVfreud
p2097
I16
sVrecording
p2098
I16
sVimmense
p2099
I14
sVdetermined
p2100
I16
sVmarriage
p2101
I79
sVsupposed
p2102
I11
sVtreated
p2103
I69
sVaug.
p2104
I26
sVcurtains
p2105
I20
sVorganisations
p2106
I51
sVaged
p2107
I14
sVorders
p2108
I52
sVsell
p2109
I76
sVmountain
p2110
I39
sVbuilt
p2111
I129
sVdancing
p2112
I12
sVself
p2113
I36
sVsevere
p2114
I46
sValso
p2115
I1248
sVinternal
p2116
I67
sVbuild
p2117
I68
sVprovince
p2118
I22
sVplay
p2119
I67
sValbert
p2120
I22
sVeggs
p2121
I37
sVswiftly
p2122
I12
sVsalmon
p2123
I13
sVchart
p2124
I15
sVdepths
p2125
I11
sVmost
p2126
I422
sVvirus
p2127
I15
sVcharm
p2128
I13
sVplan
p2129
I26
sVsignificant
p2130
I121
sVservices
p2131
I249
sVaccepting
p2132
I17
sVextremely
p2133
I68
sVrevolutionary
p2134
I24
sVsouthampton
p2135
I12
sVlaboratories
p2136
I10
sVapparatus
p2137
I11
sVcrossing
p2138
I10
sVsometimes
p2139
I205
sVcover
p2140
I47
sVkm
p2141
I14
sVlounge
p2142
I14
sVorganise
p2143
I13
sVartistic
p2144
I16
sVthank
p2145
I122
sVcharged
p2146
I46
sVdragged
p2147
I17
sVjoining
p2148
I22
sVsector
p2149
I87
sVthomas
p2150
I68
sVgolf
p2151
I34
sVrebels
p2152
I12
sVgold
p2153
I74
sVcheltenham
p2154
I14
sVobligations
p2155
I19
sVscattered
p2156
I11
sVsession
p2157
I44
sVbusinesses
p2158
I37
sVcarefully
p2159
I72
sVdefender
p2160
I12
sVfine
p2161
I127
sVfind
p2162
I420
sVoccupation
p2163
I23
sVimpact
p2164
I74
sVcell
p2165
I55
sVgiant
p2166
I18
sVregulations
p2167
I42
sVdepended
p2168
I12
sVmerger
p2169
I14
sVnervous
p2170
I31
sVwrites
p2171
I26
sVwriter
p2172
I37
sVdistributed
p2173
I20
sV19th
p2174
I12
sVunhappy
p2175
I19
sVfailed
p2176
I89
sVfactor
p2177
I63
sV8
p2178
I97
sVcolumns
p2179
I16
sVpermission
p2180
I32
sVdependent
p2181
I37
sVluke
p2182
I35
sVbanned
p2183
I16
sVexpress
p2184
I11
sVcheaper
p2185
I23
sVremedy
p2186
I13
sVcourage
p2187
I19
sVpreparing
p2188
I26
sVclosely
p2189
I55
sVsilk
p2190
I22
sVenemy
p2191
I34
sVresolve
p2192
I15
sVprogressive
p2193
I17
sVcry
p2194
I16
sVremove
p2195
I39
sVbanking
p2196
I21
sVcommon
p2197
I182
sVcease
p2198
I10
sVgospel
p2199
I11
sVriver
p2200
I94
sVapproaching
p2201
I17
sVset
p2202
I112
sVenabled
p2203
I18
sVtended
p2204
I27
sVsex
p2205
I83
sVsee
p2206
I1186
sVindividual
p2207
I55
sVmigration
p2208
I13
sVsea
p2209
I130
sVtender
p2210
I13
sVforthcoming
p2211
I16
sVaberdeen
p2212
I14
sVfeared
p2213
I19
sVproject
p2214
I141
sVspirits
p2215
I19
sVexpert
p2216
I40
sVvisiting
p2217
I11
sVmovie
p2218
I18
sVcurrently
p2219
I70
sVelectoral
p2220
I22
sVfans
p2221
I33
sVsmallest
p2222
I11
sVguilt
p2223
I18
sVburned
p2224
I14
sVchampagne
p2225
I19
sVavailable
p2226
I272
sVhistorical
p2227
I56
sVpremises
p2228
I39
sVdividends
p2229
I10
sVlunch
p2230
I54
sVincident
p2231
I37
sVrenewed
p2232
I11
sVinterface
p2233
I17
sVdividend
p2234
I15
sVprospects
p2235
I22
sVenables
p2236
I21
sVlast
p2237
I28
sVrestaurant
p2238
I35
sVinfluential
p2239
I18
sVpowers
p2240
I68
sVbarely
p2241
I23
sVforeign
p2242
I161
sVconnection
p2243
I35
sVsterling
p2244
I16
sVlong-term
p2245
I41
sVlet
p2246
I13
sVwhole
p2247
I91
sVload
p2248
I26
sVmajesty
p2249
I11
sVbell
p2250
I16
sVsimple
p2251
I140
sVloan
p2252
I38
sVoxygen
p2253
I19
sVcommunity
p2254
I231
sVagents
p2255
I37
sVchurch
p2256
I203
sVdesktop
p2257
I15
sVexpensive
p2258
I59
sVbelt
p2259
I21
sVdevil
p2260
I17
sVpublishing
p2261
I22
sVmonthly
p2262
I19
sVcreate
p2263
I82
sVacceptance
p2264
I27
sVconvicted
p2265
I12
sVgeoffrey
p2266
I17
sVsecret
p2267
I22
sVdropping
p2268
I13
sVensured
p2269
I10
sVireland
p2270
I96
sVcontained
p2271
I49
sVmeeting
p2272
I46
sVfirm
p2273
I35
sVchampion
p2274
I32
sVcounselling
p2275
I13
sVfire
p2276
I133
sVgas
p2277
I73
sVgreat
p2278
I442
sVmine
p2279
I17
sVfund
p2280
I55
sVraces
p2281
I16
sVawake
p2282
I13
sVrepresentative
p2283
I15
sVsystematic
p2284
I17
sVprices
p2285
I101
sVtowns
p2286
I41
sVchester
p2287
I11
sVbile
p2288
I12
sVhandling
p2289
I14
sVuncertain
p2290
I20
sVraw
p2291
I25
sVsolid
p2292
I35
sVjudicial
p2293
I25
sVstraight
p2294
I31
sVbill
p2295
I47
sVempirical
p2296
I15
sVtechnical
p2297
I68
sVsexuality
p2298
I14
sVreplaced
p2299
I57
sVpressed
p2300
I29
sVerror
p2301
I38
sVfurther*
p2302
I216
sVrobin
p2303
I19
sVowed
p2304
I16
sVpound
p2305
I61
sVhoping
p2306
I35
sVportugal
p2307
I11
sVcentury
p2308
I197
sVbacking
p2309
I12
sVowen
p2310
I22
sVbinding
p2311
I10
sVencountered
p2312
I17
sVitself
p2313
I237
sVbeautifully
p2314
I12
sVfunny
p2315
I45
sVitaly
p2316
I51
sVbarnes
p2317
I13
sVshorter
p2318
I18
sVrules
p2319
I105
sVdiscourse
p2320
I23
sVused (to)
p2321
I156
sVvirtually
p2322
I44
sVcorridor
p2323
I21
sVresulting
p2324
I14
sVruth
p2325
I30
sVdevelopment
p2326
I324
sVsophisticated
p2327
I25
sVknitting
p2328
I10
sVkeys
p2329
I23
sVcomprehensive
p2330
I35
sVderby
p2331
I12
sVyesterday
p2332
I195
sVhusbands
p2333
I10
sVmoment
p2334
I221
sVlevels
p2335
I121
sVpurpose
p2336
I93
sVnecessity
p2337
I18
sVaggregate
p2338
I11
sVgenuine
p2339
I33
sVimplement
p2340
I15
sVrecent
p2341
I158
sVrecognized
p2342
I30
sVtask
p2343
I92
sVbarry
p2344
I19
sVspent
p2345
I116
sVcounty
p2346
I113
sVconcrete
p2347
I18
sVwithdraw
p2348
I16
sVthoroughly
p2349
I21
sVswiss
p2350
I14
sVentry
p2351
I52
sVchemistry
p2352
I20
sVrates
p2353
I115
sVspend
p2354
I74
sVprevention
p2355
I15
sVlads
p2356
I15
sVexotic
p2357
I11
sVobserved
p2358
I46
sVsuffolk
p2359
I12
sVshape
p2360
I62
sVopenly
p2361
I12
sVtennis
p2362
I28
sVatomic
p2363
I11
sValternative
p2364
I36
sV1963
p2365
I14
sVinjuries
p2366
I26
sVtimber
p2367
I23
sVdiscipline
p2368
I55
sVcut
p2369
I29
sVreaders
p2370
I47
sVhated
p2371
I17
sVadmission
p2372
I23
sVdanger
p2373
I60
sVadvertisements
p2374
I10
sVchest
p2375
I38
sVdc
p2376
I15
sVgrim
p2377
I11
sVsignals
p2378
I19
sVshouting
p2379
I17
sVsubjects
p2380
I77
sVdeliberately
p2381
I28
sVlocation
p2382
I40
sVcrying
p2383
I14
sVrelevance
p2384
I17
sVinput
p2385
I32
sVruled
p2386
I24
sVeaster
p2387
I18
sVexcited
p2388
I16
sVsurprised
p2389
I47
sVaustralia
p2390
I50
sVvictims
p2391
I29
sVemergency
p2392
I40
sVformat
p2393
I21
sVbig
p2394
I255
sVbid
p2395
I31
sVwives
p2396
I19
sVjudgement
p2397
I25
sVmatters
p2398
I80
sVsuffering
p2399
I13
sVbit
p2400
I11
sVcarers
p2401
I12
sVprojects
p2402
I55
sVformal
p2403
I64
sVknock
p2404
I12
sVimposed
p2405
I34
sVcognitive
p2406
I12
sVfollows
p2407
I100
sVpounds
p2408
I123
sVaddressed
p2409
I27
sVconsensus
p2410
I18
sVcommunications
p2411
I35
sVindividuals
p2412
I80
sVindication
p2413
I23
sVfoolish
p2414
I12
sVdisorder
p2415
I16
sVreduces
p2416
I12
sVprivately
p2417
I12
sVoften
p2418
I376
sVsenate
p2419
I13
sVobliged
p2420
I17
sVb.
p2421
I19
sVmagnificent
p2422
I20
sVback
p2423
I11
sVdelegation
p2424
I16
sVstrongest
p2425
I10
sVpalm
p2426
I13
sVexamples
p2427
I71
sVsight
p2428
I66
sVmirror
p2429
I37
sVcurious
p2430
I22
sVserver
p2431
I15
sVpale
p2432
I35
sVourselves
p2433
I45
sVscale
p2434
I74
sVcontacts
p2435
I21
sVpet
p2436
I13
sVaffects
p2437
I14
sVdecision
p2438
I168
sVmeasurements
p2439
I14
sVintegration
p2440
I24
sVper
p2441
I135
sVreligion
p2442
I44
sVpen
p2443
I20
sVbehave
p2444
I17
sVeliminate
p2445
I11
sVgood*
p2446
I25
sVtemple
p2447
I14
sVnose
p2448
I43
sVpatient
p2449
I14
sV300
p2450
I24
sVoffenders
p2451
I13
sVcontinuing
p2452
I19
sVagreement
p2453
I133
sVfeelings
p2454
I53
sVnowhere
p2455
I24
sVbr
p2456
I13
sVrelating
p2457
I37
sVby
p2458
I22
sVwildlife
p2459
I20
sVgoods
p2460
I101
sVusa
p2461
I50
sVanything
p2462
I288
sVtruck
p2463
I12
sVmrs.
p2464
I23
sVreduced
p2465
I14
sVdrama
p2466
I36
sVdu~*
p2467
I20
sVwhisky
p2468
I17
sVbeans
p2469
I13
sVstuart
p2470
I21
sVtenants
p2471
I20
sVpollution
p2472
I41
sVrepair
p2473
I15
sVjimmy
p2474
I24
sVclinton
p2475
I20
sVinto
p2476
I1634
sVgood
p2477
I795
sVintegral
p2478
I12
sVministers
p2479
I68
sVphase
p2480
I46
sVappropriate
p2481
I113
sVprimarily
p2482
I31
sVsteven
p2483
I12
sVlesson
p2484
I23
sVcriticisms
p2485
I12
sVverbal
p2486
I15
sVspending
p2487
I29
sVbargaining
p2488
I12
sVspecifically
p2489
I38
sVcustom
p2490
I15
sVoccupy
p2491
I11
sVgermans
p2492
I25
sVsuit
p2493
I20
sVforward
p2494
I12
sVbored
p2495
I14
sVopens
p2496
I17
sVopponent
p2497
I15
sVconsiderably
p2498
I29
sVinvite
p2499
I12
sVinches
p2500
I23
sVjewish
p2501
I22
sVrelaxed
p2502
I11
sVvehicle
p2503
I42
sVimmigration
p2504
I11
sVhoped
p2505
I51
sVboys
p2506
I80
sVlink
p2507
I13
sVpacific
p2508
I27
sVhopes
p2509
I18
sVsubsidiary
p2510
I12
sVline
p2511
I221
sVwedding
p2512
I33
sVconsiderable
p2513
I96
sVdirected
p2514
I34
sVjonathan
p2515
I16
sVrejection
p2516
I15
sVup
p2517
I83
sVus
p2518
I158
sVplanet
p2519
I18
sVmaturity
p2520
I14
sV're
p2521
I835
sVexploration
p2522
I15
sVmature
p2523
I15
sVplanes
p2524
I11
sVautonomous
p2525
I11
sVwoke
p2526
I14
sValarm
p2527
I21
sVwell-known
p2528
I15
sVsort
p2529
I19
sVconstant
p2530
I47
sVexpedition
p2531
I11
sVdefined
p2532
I54
sVlikewise
p2533
I12
sVinfluence
p2534
I25
sV~ta*
p2535
I36
sVchap
p2536
I16
sVdiverse
p2537
I13
sVrolling
p2538
I10
sVnationalism
p2539
I10
sVecho
p2540
I12
sVcodes
p2541
I13
sVedwards
p2542
I13
sVthanks
p2543
I62
sVde* nop-
p2544
I107
sVoccasional
p2545
I26
sVpoints
p2546
I30
sVactors
p2547
I16
sVellen
p2548
I10
sVrevision
p2549
I11
sVexplaining
p2550
I18
sVelements
p2551
I64
sVlend
p2552
I13
sVfavourite
p2553
I15
sVprosecution
p2554
I21
sVprepared
p2555
I52
sVrestoration
p2556
I20
sVutterly
p2557
I13
sVdesert
p2558
I18
sVago
p2559
I198
sVlane
p2560
I43
sVland
p2561
I13
sVimplies
p2562
I20
sVconsumer
p2563
I44
sVage
p2564
I216
sVvehicles
p2565
I31
sVholes
p2566
I27
sVwalked
p2567
I94
sVappalling
p2568
I11
sV2000
p2569
I16
sVimplied
p2570
I16
sVpresenting
p2571
I14
sVcolonial
p2572
I15
sVwalker
p2573
I21
sVfresh
p2574
I68
sVinevitably
p2575
I31
sVhello
p2576
I38
sVlabelled
p2577
I12
sVessay
p2578
I16
sVcode
p2579
I52
sVjason
p2580
I11
sVrubbish
p2581
I23
sVillustrates
p2582
I11
sVhint
p2583
I14
sVresults
p2584
I147
sVexisting
p2585
I94
sVillustrated
p2586
I26
sVmaastricht
p2587
I12
sVstops
p2588
I12
sVbroader
p2589
I14
sVshrugged
p2590
I24
sVseemed
p2591
I238
sVcontacted
p2592
I11
sVturkish
p2593
I14
sVconcerned
p2594
I158
sVyoung
p2595
I21
sVsend
p2596
I80
sVintensive
p2597
I18
sVhelps
p2598
I28
sVvisitor
p2599
I22
sVfatal
p2600
I14
sVresources
p2601
I105
sVbrigade
p2602
I12
sVjurisdiction
p2603
I19
sVgarden
p2604
I108
sVcontinues
p2605
I40
sVgrid
p2606
I11
sVputting
p2607
I76
sVspecific
p2608
I113
sVsurgeon
p2609
I11
sVcontinued
p2610
I21
sVminerals
p2611
I11
sVcategories
p2612
I34
sVarrange
p2613
I23
sVentire
p2614
I48
sVmagic
p2615
I15
sVtransmission
p2616
I15
sVmarry
p2617
I27
sVshock
p2618
I42
sVfewer
p2619
I31
sVanxious
p2620
I31
sVthis
p2621
I4623
sVrace
p2622
I74
sVride
p2623
I17
sVclients
p2624
I49
sVulster
p2625
I24
sVcrop
p2626
I15
sVmaintain
p2627
I54
sVrecruitment
p2628
I16
sVimply
p2629
I15
sVvideo
p2630
I65
sVuncomfortable
p2631
I14
sVsubtle
p2632
I18
sVincidentally
p2633
I11
sVodd
p2634
I45
sVdepression
p2635
I23
sVindex
p2636
I45
sVsuppliers
p2637
I18
sVdirective
p2638
I17
sVchicago
p2639
I11
sVgiving
p2640
I125
sVpipes
p2641
I12
sVexpressed
p2642
I69
sVpractices
p2643
I45
sVaccess
p2644
I100
sVconsistently
p2645
I16
sVindian
p2646
I38
sVtwins
p2647
I11
sVfirms
p2648
I75
sVbird
p2649
I36
sVexercise
p2650
I24
sVthin
p2651
I51
sVbody
p2652
I255
sVjustification
p2653
I18
sVled
p2654
I154
sVlee
p2655
I36
sVleg
p2656
I53
sVrespectively
p2657
I32
sVgathered
p2658
I26
sVjointly
p2659
I11
sVhighly
p2660
I91
sVdressed
p2661
I37
sVobjects
p2662
I45
sVpoverty
p2663
I31
sVsink
p2664
I11
sVlicence
p2665
I36
sVothers
p2666
I282
sVconsideration
p2667
I54
sVinvented
p2668
I12
sVfifteen
p2669
I54
sVimplicit
p2670
I12
sVextreme
p2671
I33
sV39
p2672
I13
sV38
p2673
I15
sVtalent
p2674
I21
sV33
p2675
I17
sV32
p2676
I20
sV31
p2677
I51
sV30
p2678
I114
sV37
p2679
I14
sV36
p2680
I17
sV35
p2681
I25
sV34
p2682
I15
sVsurvey
p2683
I79
sVdefeat
p2684
I30
sVopinion
p2685
I75
sVresidents
p2686
I35
sVmakes
p2687
I166
sVmaker
p2688
I10
sVinvolves
p2689
I41
sVcomposed
p2690
I20
sVnamed
p2691
I44
sVprivate
p2692
I173
sVnames
p2693
I76
sVscandal
p2694
I15
sVtools
p2695
I32
sVcausal
p2696
I12
sVstanding
p2697
I28
sVconfidence
p2698
I70
sVexciting
p2699
I33
sVcertificate
p2700
I29
sVillegal
p2701
I24
sVbush
p2702
I29
sVnext
p2703
I30
sVeleven
p2704
I38
sVdoubt
p2705
I21
sVbutler
p2706
I10
sVthemselves
p2707
I237
sVloch
p2708
I13
sVdefendant
p2709
I33
sVjudged
p2710
I17
sVpencil
p2711
I12
sVcomparison
p2712
I33
sVachieve
p2713
I68
sVoccurred
p2714
I55
sVtrail
p2715
I12
sVcarrying
p2716
I56
sVprizes
p2717
I11
sVashamed
p2718
I11
sVbaby
p2719
I91
sVcentral
p2720
I193
sViii
p2721
I50
sVcharity
p2722
I35
sVcustomer
p2723
I47
sVaccount
p2724
I24
sVballs
p2725
I15
sVanimals
p2726
I86
sVace
p2727
I11
sVtunnel
p2728
I24
sVgabriel
p2729
I13
sVchallenge
p2730
I16
sVstations
p2731
I37
sVpour
p2732
I11
sVobvious
p2733
I85
sVpublications
p2734
I20
sVpraise
p2735
I12
sVindustrial
p2736
I116
sVtrevor
p2737
I12
sVclosing
p2738
I14
sVgrin
p2739
I11
sVcoffin
p2740
I14
sVborrowed
p2741
I10
sVslid
p2742
I16
sVreserved
p2743
I11
sVbent
p2744
I21
sVe.g.
p2745
I49
sVprocess
p2746
I11
sVlock
p2747
I15
sVproportions
p2748
I15
sVslim
p2749
I12
sVrode
p2750
I11
sVpurposes
p2751
I58
sVpieces
p2752
I56
sVhigh
p2753
I11
sVeffectively
p2754
I51
sVreserves
p2755
I20
sVslip
p2756
I14
sVbones
p2757
I23
sVreynolds
p2758
I11
sVcontempt
p2759
I13
sVnative
p2760
I24
sVlamb
p2761
I10
sVeducational
p2762
I59
sVvaried
p2763
I13
sVdemocracy
p2764
I42
sVboxing
p2765
I12
sVhampshire
p2766
I12
sVdelay
p2767
I23
sVlamp
p2768
I14
sVwinners
p2769
I20
sVpair
p2770
I60
sVforest
p2771
I70
sVanimal
p2772
I67
sVcomedy
p2773
I14
sVestablishment
p2774
I40
sVstock
p2775
I76
sVprofile
p2776
I23
sVbuildings
p2777
I66
sVblocks
p2778
I21
sVwaters
p2779
I22
sVphilosophy
p2780
I35
sVtied
p2781
I25
sVbothered
p2782
I15
sVpigs
p2783
I12
sVpreferred
p2784
I11
sVties
p2785
I13
sVsolidarity
p2786
I11
sVefficiently
p2787
I11
sVrealized
p2788
I31
sVcounter
p2789
I17
sVlines
p2790
I102
sVredundant
p2791
I12
sVelement
p2792
I56
sVchief
p2793
I38
sVlose
p2794
I65
sVallow
p2795
I115
sVfurious
p2796
I13
sVsubsequently
p2797
I37
sVvolunteers
p2798
I19
sVcounted
p2799
I13
sVha
p2800
I30
sVevolutionary
p2801
I11
sVproducer
p2802
I18
sVproduces
p2803
I25
sVinstitutional
p2804
I20
sVmove
p2805
I68
sVoutlook
p2806
I12
sVdoubtful
p2807
I13
sVproduced
p2808
I129
sVagricultural
p2809
I41
sVarrangement
p2810
I33
sVbunch
p2811
I12
sVperfect
p2812
I56
sVregions
p2813
I42
sVle
p2814
I11
sVla
p2815
I19
sVchosen
p2816
I11
sVvaries
p2817
I13
sVacres
p2818
I16
sVmeantime
p2819
I14
sVwilling
p2820
I39
sVdegrees
p2821
I31
sVinstruments
p2822
I29
sVcriminal
p2823
I44
sVdad
p2824
I73
sVdesigns
p2825
I28
sVmechanisms
p2826
I20
sVgreater
p2827
I141
sVoutlined
p2828
I20
sVspell
p2829
I13
sVnewman
p2830
I10
sVdock
p2831
I12
sVcutting
p2832
I10
sVkiss
p2833
I12
sVcage
p2834
I10
sVrealize
p2835
I22
sVpresidential
p2836
I21
sVapplicants
p2837
I12
sVpersonally
p2838
I27
sVelite*
p2839
I12
sVintelligent
p2840
I19
sVtraced
p2841
I10
sVidentified
p2842
I62
sVsufficiently
p2843
I26
sVdelightful
p2844
I11
sVbetty
p2845
I13
sVtruth
p2846
I83
sVshortage
p2847
I15
sVcouncillors
p2848
I20
sVbeneath
p2849
I48
sVglasses
p2850
I25
sVshower
p2851
I15
sVdoing
p2852
I279
sVstrip
p2853
I16
sVsociety
p2854
I238
sVbooks
p2855
I131
sVstatic
p2856
I12
sVthirteen
p2857
I22
sVprogrammes
p2858
I65
sVsexual
p2859
I69
sVwitness
p2860
I18
sVmatrix
p2861
I14
sV'
p2862
I479
sVdismissal
p2863
I15
sVwholly
p2864
I22
sVmate
p2865
I17
sVlecture
p2866
I17
sVelectronics
p2867
I15
sVintervention
p2868
I32
sVref
p2869
I39
sVred
p2870
I23
sVshut
p2871
I47
sVapproached
p2872
I29
sVinteractions
p2873
I11
sVfrank
p2874
I37
sVfourteen
p2875
I27
sVban
p2876
I24
sVapproaches
p2877
I26
sVsurely
p2878
I63
sVcollection
p2879
I78
sVthrust
p2880
I12
sVlikelihood
p2881
I12
sVdefining
p2882
I10
sVbackwards
p2883
I18
sVmainland
p2884
I11
sVq.v.
p2885
I23
sVcould
p2886
I1683
sVarea
p2887
I351
sVput
p2888
I596
sVnew nop-
p2889
I106
sVdavid
p2890
I157
sVlength
p2891
I72
sVallied
p2892
I14
sVqualification
p2893
I13
sVremoving
p2894
I14
sVdavis
p2895
I14
sVretain
p2896
I25
sVretail
p2897
I20
sVfacilitate
p2898
I10
sVstimulate
p2899
I10
sVsouth
p2900
I165
sVfinest
p2901
I18
sVblown
p2902
I12
sVthird
p2903
I211
sV2,000
p2904
I13
sVscene
p2905
I68
sVowned
p2906
I36
sVjesus
p2907
I55
sVembarrassed
p2908
I13
sVimprovements
p2909
I24
sVowner
p2910
I50
sVhave*
p2911
I4735
sVreliable
p2912
I22
sVlegislative
p2913
I19
sVexplain
p2914
I79
sVancient
p2915
I50
sVsadly
p2916
I19
sVfascinating
p2917
I17
sVstart
p2918
I85
sVfestival
p2919
I31
sVdemonstration
p2920
I19
sVsystem
p2921
I447
sVintermediate
p2922
I13
sVsergeant
p2923
I26
sVtravelled
p2924
I22
sVpainful
p2925
I19
sVinterests
p2926
I104
sVenforcement
p2927
I13
sVstomach
p2928
I30
sVgear
p2929
I19
sVcompleted
p2930
I55
sVacquire
p2931
I20
sVlamont
p2932
I12
sVenvironmental
p2933
I84
sVdeeply
p2934
I37
sVdecisive
p2935
I12
sVsteel
p2936
I37
sVloved
p2937
I46
sVcolleagues
p2938
I56
sVsplit
p2939
I25
sVbother
p2940
I22
sVroberts
p2941
I15
sVsweden
p2942
I17
sVreproduction
p2943
I11
sVlover
p2944
I18
sVvisited
p2945
I43
sVabolished
p2946
I11
sVsteep
p2947
I16
sVcollecting
p2948
I15
sVimaginative
p2949
I10
sVfalse
p2950
I36
sVpartnership
p2951
I35
sVgently
p2952
I40
sVcomfortable
p2953
I40
sVtonight
p2954
I69
sVgentle
p2955
I29
sVunlikely
p2956
I56
sVmiserable
p2957
I12
sVthroat
p2958
I32
sVapparently
p2959
I78
sVclearly
p2960
I153
sVviewed
p2961
I21
sVdocuments
p2962
I44
sVdishes
p2963
I14
sVstudying
p2964
I24
sVgravity
p2965
I12
sVparks
p2966
I14
sVmix
p2967
I12
sVconcerns
p2968
I13
sVprovoked
p2969
I11
sVlinda
p2970
I12
sVkorean
p2971
I12
sVsubject
p2972
I51
sVlily
p2973
I14
sVcompetence
p2974
I15
sVaccuracy
p2975
I17
sVworldwide
p2976
I10
sVbrazil
p2977
I17
sVunless
p2978
I110
sVmanor
p2979
I13
sVshaped
p2980
I11
sVcourtesy
p2981
I11
sVsaid
p2982
I2087
sVeight
p2983
I173
sVpreliminary
p2984
I18
sVdevice
p2985
I29
sVdraws
p2986
I11
sVstriker
p2987
I13
sVmedal
p2988
I11
sVpayment
p2989
I54
sVso-called
p2990
I27
sVlined
p2991
I12
sVenthusiastic
p2992
I14
sVinappropriate
p2993
I13
sVclive
p2994
I10
sVdisease
p2995
I89
sVface
p2996
I67
sV1,000
p2997
I19
sVmechanical
p2998
I20
sVoccasion
p2999
I53
sVpainting
p3000
I38
sVfact
p3001
I374
sVatmosphere
p3002
I49
sVselection
p3003
I60
sVtext
p3004
I77
sVcharles
p3005
I91
sVless than*
p3006
I40
sVbring
p3007
I154
sVmanchester
p3008
I50
sVlloyd
p3009
I23
sVbedroom
p3010
I44
sVportfolio
p3011
I16
sVrough
p3012
I34
sVmice
p3013
I10
sVdecade
p3014
I37
sVstaff
p3015
I226
sVpause
p3016
I16
sVgrabbed
p3017
I15
sVknowledge
p3018
I146
sVcomfort
p3019
I26
sVjaw
p3020
I11
sVcontrols
p3021
I11
sVshould
p3022
I1112
sVbernard
p3023
I21
sVplanted
p3024
I14
sVtape
p3025
I46
sVmolecules
p3026
I15
sVriding
p3027
I17
sVcommunist
p3028
I42
sVhope
p3029
I55
sVequilibrium
p3030
I17
sVmeant
p3031
I113
sVinsight
p3032
I14
sVadvisory
p3033
I16
sVlistened
p3034
I24
sVexceptional
p3035
I17
sVbeat
p3036
I11
sVfamiliar
p3037
I57
sVczechoslovakia
p3038
I11
sVlucky
p3039
I41
sVbear
p3040
I12
sVdivisions
p3041
I22
sVbeam
p3042
I11
sVexchanges
p3043
I11
sVrichards
p3044
I11
sVsorts
p3045
I30
sVareas
p3046
I234
sVsymbols
p3047
I13
sVcommittees
p3048
I27
sVorgan
p3049
I13
sVoffences
p3050
I24
sVdenmark
p3051
I13
sVrage
p3052
I12
sVcomprising
p3053
I11
sVtaxes
p3054
I28
sVcalling
p3055
I41
sVreid
p3056
I10
sVstuff
p3057
I69
sVpainter
p3058
I12
sVfixed
p3059
I28
sVgibson
p3060
I10
sVstrengthened
p3061
I10
sVtemporarily
p3062
I13
sVexists
p3063
I32
sVframe
p3064
I32
sVpacket
p3065
I12
sVedition
p3066
I25
sVintensity
p3067
I16
sVenhanced
p3068
I11
sVgreece
p3069
I17
sVdiscretion
p3070
I19
sVpacked
p3071
I18
sVphases
p3072
I10
sVwire
p3073
I22
sVreform
p3074
I54
sVnuclear
p3075
I81
sVralph
p3076
I12
sVdifficulties
p3077
I68
sVroutine
p3078
I29
sVprogress
p3079
I76
sVboundary
p3080
I20
sVemissions
p3081
I15
sVindustries
p3082
I43
sVends
p3083
I15
sVdeliver
p3084
I22
sVhistorians
p3085
I16
sVconfiguration
p3086
I10
sVstaring
p3087
I29
sVrestrictions
p3088
I27
sVsharply
p3089
I25
sVjoke
p3090
I21
sVinvited
p3091
I42
sVequal
p3092
I61
sVdrug
p3093
I50
sVtrips
p3094
I11
sVetc
p3095
I50
sVdoorway
p3096
I17
sVfigures
p3097
I112
sVbristol
p3098
I29
sVpassing
p3099
I12
sVheart
p3100
I137
sVglorious
p3101
I11
sVotherwise
p3102
I88
sVcomment
p3103
I19
sVadjusted
p3104
I11
sVrelevant
p3105
I79
sVcm
p3106
I21
sVconclude
p3107
I15
sVmalcolm
p3108
I18
sVcd
p3109
I10
sVlaugh
p3110
I17
sVcousin
p3111
I18
sVallocated
p3112
I17
sVwinning
p3113
I31
sVearning
p3114
I12
sVdebt
p3115
I54
sVvideos
p3116
I11
sVmidland
p3117
I15
sVtremendous
p3118
I20
sVcopies
p3119
I35
sVgenetic
p3120
I18
sVgaze
p3121
I21
sViran
p3122
I20
sVah
p3123
I99
sVindicators
p3124
I11
sVcurtain
p3125
I14
sVproposal
p3126
I42
sVwaste
p3127
I14
sVdefine
p3128
I24
sVsuggested
p3129
I106
sVarises
p3130
I18
sVc.
p3131
I22
sVessentially
p3132
I36
sVneighbour
p3133
I18
sVpensioners
p3134
I14
sVfinished
p3135
I79
sVdeep
p3136
I27
sVangles
p3137
I13
sVgraphics
p3138
I20
sVassessments
p3139
I11
sVan
p3140
I3430
sVspain
p3141
I45
sVhomes
p3142
I61
sVholiday
p3143
I76
sVcouple
p3144
I123
sVimagination
p3145
I27
sVplain
p3146
I11
sVappearance
p3147
I54
sVexamine
p3148
I37
sVvalue
p3149
I175
sVpromoted
p3150
I16
sVuncertainty
p3151
I22
sValmost
p3152
I316
sVwalks
p3153
I12
sVsurprisingly
p3154
I26
sVhardware
p3155
I21
sVarrangements
p3156
I58
sVagainst
p3157
I562
sVlifetime
p3158
I18
sVclaimed
p3159
I83
sVjunction
p3160
I18
sVinspector
p3161
I29
sVsits
p3162
I12
sVproductivity
p3163
I20
sVof*
p3164
I17
sVadministration
p3165
I66
sVhighlighted
p3166
I11
sVmatthew
p3167
I26
sVfill
p3168
I39
sVpaula
p3169
I11
sVinjured
p3170
I11
sVball
p3171
I74
sVnovels
p3172
I13
sVend nop-
p3173
I12
sVdrink
p3174
I32
sVupon
p3175
I234
sVv.
p3176
I54
sVforehead
p3177
I13
sVdust
p3178
I26
sVjudgment
p3179
I33
sVscholars
p3180
I11
sVexpand
p3181
I18
sVaudit
p3182
I22
sVpriest
p3183
I21
sVoff
p3184
I214
sVmention
p3185
I16
sVnevertheless
p3186
I72
sVconfronted
p3187
I12
sVcolour
p3188
I111
sVthought
p3189
I95
sVpatterns
p3190
I58
sVcommand
p3191
I34
sVsets
p3192
I22
sVcomparisons
p3193
I13
sVmuscle
p3194
I18
sVarising
p3195
I22
sVdrawing
p3196
I25
sVlatest
p3197
I65
sVstores
p3198
I23
sVnegligence
p3199
I13
sVcoins
p3200
I14
sVflesh
p3201
I25
sVmoments
p3202
I32
sVexecutive
p3203
I78
sVdomestic
p3204
I69
sVgoing*
p3205
I658
sVclinic
p3206
I15
sVunderlying
p3207
I22
sVrooms
p3208
I55
sVseats
p3209
I47
sVprotecting
p3210
I12
sVpaul
p3211
I114
sVgenerous
p3212
I23
sVwee
p3213
I12
sVfield
p3214
I143
sVresidential
p3215
I29
sVengage
p3216
I12
sVregulatory
p3217
I12
sVlake
p3218
I39
sVday
p3219
I12
sVarrest
p3220
I16
sVadd
p3221
I82
sVcombine
p3222
I16
sVwet
p3223
I36
sVpractise
p3224
I12
sVought
p3225
I61
sVresolved
p3226
I21
sVtests
p3227
I50
sVincreased
p3228
I57
sVarticles
p3229
I29
sVchecking
p3230
I16
sVchancellor
p3231
I37
sVfebruary
p3232
I84
sVincreases
p3233
I20
sVfive
p3234
I407
sVdesk
p3235
I45
sVbelgium
p3236
I14
sVles*
p3237
I13
sVmhm
p3238
I75
sVemma
p3239
I15
sVlike
p3240
I16
sVsuccess
p3241
I134
sVchairs
p3242
I20
sVsofa
p3243
I10
sVtons
p3244
I12
sVadmitted
p3245
I56
sVozone
p3246
I13
sVgarage
p3247
I21
sVjournalist
p3248
I14
sVwarned
p3249
I40
sVbecome
p3250
I304
sVworks
p3251
I63
sVsoft
p3252
I61
sVreplacement
p3253
I26
sVamendment
p3254
I18
sVgaining
p3255
I12
sVclassical
p3256
I33
sVauthority
p3257
I183
sVhair
p3258
I144
sVtony
p3259
I50
sVsunderland
p3260
I14
sVmiss*
p3261
I91
sVconvey
p3262
I12
sVrecommendation
p3263
I14
sVproper
p3264
I65
sVfaint
p3265
I15
sVrecognition
p3266
I58
sVhappens
p3267
I58
sVvocabulary
p3268
I12
sVliterally
p3269
I20
sVavoid
p3270
I80
sVmorris
p3271
I18
sVshelter
p3272
I14
sVdoes
p3273
I687
sVpassion
p3274
I23
sVassuming
p3275
I19
sVchains
p3276
I13
sVmode
p3277
I27
sVdeciding
p3278
I19
sVbiology
p3279
I11
sVblowing
p3280
I10
sVproud
p3281
I32
sVschedule
p3282
I24
sVpressure
p3283
I119
sVhost
p3284
I27
sValthough
p3285
I436
sVaccompanied
p3286
I33
sVsnapped
p3287
I19
sVloans
p3288
I27
sVtrials
p3289
I21
sVcounties
p3290
I16
sVstage
p3291
I162
sVgained
p3292
I37
sVsister
p3293
I75
sVlifestyle
p3294
I11
sVputs
p3295
I29
sVshaking
p3296
I18
sVwithdrew
p3297
I10
sVbasis
p3298
I145
sVholdings
p3299
I12
sVseeds
p3300
I16
sVinsufficient
p3301
I13
sVconstraints
p3302
I19
sVsoftware
p3303
I94
sValliance
p3304
I31
sVletters
p3305
I79
sVrecognise
p3306
I36
sVcatherine
p3307
I16
sVcommitment
p3308
I57
sVthree
p3309
I797
sVassess
p3310
I27
sVchronic
p3311
I17
sVguard
p3312
I25
sVfemale
p3313
I21
sVjoyce
p3314
I13
sVroads
p3315
I39
sVmere
p3316
I34
sV1986
p3317
I79
sV1987
p3318
I85
sV1984
p3319
I58
sVprocessor
p3320
I15
sVridge
p3321
I13
sV1983
p3322
I57
sV1980
p3323
I52
sV1981
p3324
I56
sVhousing
p3325
I28
sVoutline
p3326
I14
sVspots
p3327
I12
sVawarded
p3328
I25
sVrecognised
p3329
I43
sVfrustration
p3330
I14
sVbiggest
p3331
I46
sVspecimens
p3332
I15
sVnaturally
p3333
I43
sVfunction
p3334
I78
sVfiscal
p3335
I13
sVbuy
p3336
I124
sVbus
p3337
I54
sVbrand
p3338
I13
sVnt
p3339
I14
sVpreparations
p3340
I10
sVdelivery
p3341
I36
sVrepeated
p3342
I32
sVconstruction
p3343
I63
sVconservative*
p3344
I64
sVvaluation
p3345
I11
sVentered
p3346
I59
sVpartially
p3347
I13
sVcount
p3348
I21
sVwise
p3349
I20
sVglory
p3350
I17
sVdangerous
p3351
I58
sVofficial
p3352
I21
sVsmooth
p3353
I28
sVexcitement
p3354
I26
sVplaced
p3355
I86
sVfrequency
p3356
I28
sVonwards
p3357
I14
sVfetch
p3358
I12
sVdistribution
p3359
I63
sVminutes
p3360
I183
sVbearing
p3361
I22
sVirish
p3362
I59
sVrabbits
p3363
I10
sVdeaths
p3364
I25
sVnurses
p3365
I25
sVrecognize
p3366
I21
sVcontribute
p3367
I27
sVpie
p3368
I12
sVpig
p3369
I13
sVinn
p3370
I15
sVperiods
p3371
I40
sVour
p3372
I950
sVcommentators
p3373
I10
sVshooting
p3374
I11
sVpit
p3375
I17
sVproceeds
p3376
I11
sVinc
p3377
I57
sVcompared
p3378
I88
sVpicked
p3379
I63
sV48
p3380
I15
sVvariety
p3381
I87
sV46
p3382
I11
sVcorporation
p3383
I35
sV44
p3384
I12
sV45
p3385
I22
sVclaiming
p3386
I22
sVforests
p3387
I20
sV40
p3388
I57
sV41
p3389
I12
sVdetails
p3390
I117
sVnelson
p3391
I10
sVrepeat
p3392
I27
sVmonday
p3393
I53
sVvariation
p3394
I27
sVbladder
p3395
I10
sVchance
p3396
I130
sVcheque
p3397
I20
sVchristians
p3398
I16
sVexposure
p3399
I23
sVghost
p3400
I14
sVmozart
p3401
I12
sVoral
p3402
I21
sVbaker
p3403
I20
sVlasted
p3404
I14
sVrule
p3405
I12
sVlift
p3406
I19
sVcompete
p3407
I19
sVpension
p3408
I45
sVsearched
p3409
I11
sVrural
p3410
I63
sVaccidents
p3411
I20
sVgardens
p3412
I37
sVlimited
p3413
I40
sVmagnetic
p3414
I15
sVcomparatively
p3415
I12
sVdesirable
p3416
I21
sVfacilities
p3417
I75
sVnursery
p3418
I18
sVsleep
p3419
I37
sVcontroversial
p3420
I21
sVclimb
p3421
I16
sVoldest
p3422
I15
sVintegrity
p3423
I15
sVforget
p3424
I62
sVrelationships
p3425
I60
sVvotes
p3426
I31
sVfeeding
p3427
I18
sVpointing
p3428
I22
sVparis
p3429
I61
sVneighbours
p3430
I31
sVbike
p3431
I18
sVvoted
p3432
I23
sVunder
p3433
I56
sVpride
p3434
I27
sVworth
p3435
I21
sVmerchant
p3436
I18
sVrisk
p3437
I15
sVblanket
p3438
I11
sVrise
p3439
I34
sVinvisible
p3440
I13
sVevery
p3441
I401
sVjack
p3442
I57
sVencounter
p3443
I10
sVchapel
p3444
I20
sVtickets
p3445
I26
sVbelieved
p3446
I82
sVdoubts
p3447
I20
sVcause
p3448
I58
sVvenue
p3449
I12
sVannounced
p3450
I105
sVswallowed
p3451
I13
sVharriet
p3452
I17
sVtriumph
p3453
I17
sVenjoy
p3454
I66
sVkilometres
p3455
I11
sVleaders
p3456
I72
sVdisciplines
p3457
I11
sVconsistent
p3458
I31
sVinvariably
p3459
I16
sVestimates
p3460
I19
sVdirect
p3461
I13
sVsurrounding
p3462
I14
sVstreet
p3463
I194
sVestimated
p3464
I17
sVphoned
p3465
I13
sVblue
p3466
I12
sVestablished
p3467
I20
sVsettlement
p3468
I46
sVhide
p3469
I23
sVchrist
p3470
I47
sVorganisms
p3471
I10
sVugly
p3472
I14
sVreligious
p3473
I66
sVspecification
p3474
I13
sVselected
p3475
I14
sVsupplied
p3476
I33
sVchildren
p3477
I466
sVreconstruction
p3478
I11
sVconduct
p3479
I12
sVsupplier
p3480
I14
sVsupplies
p3481
I25
sVemily
p3482
I20
sVofficially
p3483
I18
sVconsisting
p3484
I13
sVseeks
p3485
I15
sVtold
p3486
I372
sVkicked
p3487
I16
sVsimultaneously
p3488
I18
sVstared
p3489
I46
sVhundreds
p3490
I40
sVprotection
p3491
I80
sVstudio
p3492
I76
sVpursuit
p3493
I13
sVrepresented
p3494
I54
sVpath
p3495
I62
sVgrinned
p3496
I18
sVcelebration
p3497
I12
sVobtained
p3498
I63
sVproperty
p3499
I125
sVdaughter
p3500
I94
sVforum
p3501
I18
sVauction
p3502
I13
sVitems
p3503
I67
sVemployees
p3504
I58
sVchanged
p3505
I109
sVmuseums
p3506
I14
sVanalysts
p3507
I11
sVabolition
p3508
I12
sVstressed
p3509
I22
sVchanges
p3510
I183
sVpunishment
p3511
I23
sVdiameter
p3512
I13
sVprints
p3513
I12
sVsecure
p3514
I18
sVstraw
p3515
I14
sVjulie
p3516
I14
sVangrily
p3517
I11
sVjulia
p3518
I15
sVerected
p3519
I10
sVpatience
p3520
I12
sVmiddlesbrough
p3521
I36
sVopportunities
p3522
I58
sVglance
p3523
I23
sVtotal
p3524
I51
sVsarah
p3525
I35
sVplot
p3526
I18
sVold-fashioned
p3527
I12
sVwould
p3528
I2551
sVpalestinian
p3529
I10
sVhospital
p3530
I151
sVindians
p3531
I12
sVnegative
p3532
I45
sV1930s
p3533
I17
sVasset
p3534
I20
sVshed
p3535
I12
sVassessment
p3536
I67
sVlorry
p3537
I13
sVhollywood
p3538
I16
sVseparated
p3539
I21
sVremark
p3540
I12
sVisabel
p3541
I13
sVreign
p3542
I18
sVaware
p3543
I108
sVgrief
p3544
I14
sVphone
p3545
I14
sVchampionships
p3546
I15
sVexcellent
p3547
I67
sVyard
p3548
I33
sVmust
p3549
I723
sVme
p3550
I1364
sV1990
p3551
I150
sV1993
p3552
I57
sV1992
p3553
I102
sVjoin
p3554
I74
sV1994
p3555
I16
sVshame
p3556
I19
sVmm
p3557
I17
sVml
p3558
I11
sVwork
p3559
I260
sVrefusing
p3560
I14
sVworn
p3561
I19
sVtheories
p3562
I37
sVmp
p3563
I32
sVms
p3564
I17
sVmr
p3565
I524
sVelbow
p3566
I11
sVerm
p3567
I627
sVappraisal
p3568
I11
sVshook
p3569
I53
sVindicated
p3570
I44
sVcited
p3571
I14
sVflung
p3572
I11
sVindia
p3573
I47
sVindicates
p3574
I23
sVwoman
p3575
I232
sVharold
p3576
I12
sVpremium
p3577
I12
sVchapman
p3578
I11
sVattract
p3579
I25
sVguarantee
p3580
I14
sVceremony
p3581
I18
sVend
p3582
I55
sVrecovery
p3583
I38
sVkeen
p3584
I37
sVinhabitants
p3585
I15
sVie
p3586
I15
sVreturning
p3587
I33
sVvery
p3588
I65
sVwriters
p3589
I36
sVadjacent
p3590
I11
sVboats
p3591
I20
sVgate
p3592
I35
sVordinary
p3593
I68
sVresignation
p3594
I22
sVbadly
p3595
I43
sVfever
p3596
I11
sVdescription
p3597
I51
sVmess
p3598
I20
sVladder
p3599
I13
sVearlier
p3600
I70
sVmemorial
p3601
I15
sVdemanding
p3602
I18
sVcustoms
p3603
I23
sVbarriers
p3604
I15
sVlay
p3605
I92
sVmidlands
p3606
I17
sVlaw
p3607
I270
sVmeaningful
p3608
I10
sVparallel
p3609
I11
sVsuspected
p3610
I16
sVsplendid
p3611
I17
sVamid
p3612
I11
sVacknowledged
p3613
I19
sVgreek
p3614
I29
sVcomplexity
p3615
I17
sVdavies
p3616
I21
sVultimate
p3617
I25
sVparish
p3618
I39
sVfan
p3619
I15
sVorder
p3620
I18
sVexecuted
p3621
I13
sVinterpretation
p3622
I43
sVoffice
p3623
I257
sVconsent
p3624
I32
sVover
p3625
I18
sVsatisfied
p3626
I31
sVlondon
p3627
I351
sVoven
p3628
I13
sVinnovative
p3629
I10
sVhereford
p3630
I11
sVmayor
p3631
I21
sVexchange
p3632
I82
sVsciences
p3633
I21
sVimf
p3634
I11
sVsomewhere
p3635
I70
sVexpectations
p3636
I33
sVwriting
p3637
I53
sVdestroyed
p3638
I31
sVproduction
p3639
I156
sV400
p3640
I17
sVharmony
p3641
I12
sVeventually
p3642
I91
sVcoffee
p3643
I67
sVaffected
p3644
I54
sVtourist
p3645
I20
sVprevented
p3646
I19
sVsafe
p3647
I66
sVbreak
p3648
I36
sVband
p3649
I67
sVreaches
p3650
I12
sVthey
p3651
I4332
sVwashing
p3652
I11
sVstrategic
p3653
I30
sVtourism
p3654
I15
sVbank
p3655
I168
sVbread
p3656
I38
sVshadows
p3657
I15
sVnetherlands
p3658
I15
sValex
p3659
I19
sVbosnia
p3660
I10
sVpotatoes
p3661
I16
sVreasonably
p3662
I31
sVclassified
p3663
I10
sVrocks
p3664
I29
sVchoir
p3665
I10
sVfilling
p3666
I15
sVvictory
p3667
I56
sVreasonable
p3668
I61
sVeach
p3669
I508
sVentitled
p3670
I23
sVlifted
p3671
I38
sVschemes
p3672
I51
sVmeets
p3673
I14
sVdiana
p3674
I23
sVtrain
p3675
I16
sVcrimes
p3676
I18
sVapplicable
p3677
I14
sVdefences
p3678
I11
sVward
p3679
I15
sVsaturday
p3680
I83
sVt.
p3681
I12
sVprecisely
p3682
I35
sVnetwork
p3683
I72
sVdriving
p3684
I13
sVgod
p3685
I36
sVcameras
p3686
I12
sVdiesel
p3687
I13
sVforty
p3688
I66
sVvessels
p3689
I15
sVlaid
p3690
I59
sVdaniel
p3691
I15
sVwrite
p3692
I109
sVmedicine
p3693
I28
sVgot
p3694
I932
sVnewly
p3695
I27
sVtwenty-five
p3696
I12
sVforth
p3697
I13
sVindependence
p3698
I45
sVprovide
p3699
I223
sVbarrier
p3700
I16
sVhang
p3701
I31
sVfree
p3702
I10
sVfred
p3703
I21
sVcampaigns
p3704
I14
sVgaulle
p3705
I10
sVappointments
p3706
I15
sVdisputes
p3707
I14
sVformation
p3708
I40
sVevil
p3709
I13
sVwanted
p3710
I234
sVwidespread
p3711
I32
sVlothian
p3712
I11
sVcreated
p3713
I85
sVdays
p3714
I331
sVpriorities
p3715
I20
sVeconomically
p3716
I10
sVpence
p3717
I13
sVcanterbury
p3718
I12
sVincorporated
p3719
I19
sVunknown
p3720
I43
sVonto
p3721
I62
sVgloucester
p3722
I32
sVrang
p3723
I27
sVappeals
p3724
I15
sVkim
p3725
I13
sVresearcher
p3726
I11
sVi.
p3727
I11
sVprimary
p3728
I86
sVrank
p3729
I18
sVhearing
p3730
I23
sVrestrict
p3731
I11
sVfantasy
p3732
I13
sVphilosophical
p3733
I13
sVadopted
p3734
I51
sVanother
p3735
I581
sVtel
p3736
I12
sVthick
p3737
I46
sVelectronic
p3738
I34
sVillustrate
p3739
I16
sVagriculture
p3740
I39
sVfence
p3741
I17
sVrevival
p3742
I12
sVguinness
p3743
I13
sVtop
p3744
I112
sVneck
p3745
I56
sVapproximately
p3746
I28
sVfiction
p3747
I20
sVcalifornia
p3748
I22
sVtoo
p3749
I701
sVtom
p3750
I55
sVpercentage
p3751
I28
sVfarming
p3752
I22
sVdogs
p3753
I44
sVurban
p3754
I54
sVceiling
p3755
I23
sVmurder
p3756
I54
sVhappily
p3757
I18
sVtool
p3758
I22
sVserve
p3759
I53
sVtook
p3760
I391
sVrejected
p3761
I39
sVsolicitor
p3762
I32
sVguidelines
p3763
I23
sVwestern
p3764
I99
sVwasted
p3765
I10
sVkept
p3766
I143
sVmusical
p3767
I29
sVcolitis
p3768
I10
sVmercy
p3769
I11
sVtarget
p3770
I65
sVroles
p3771
I28
sVscenes
p3772
I21
sVtourists
p3773
I15
sVclasses
p3774
I61
sVflame
p3775
I11
sVcabin
p3776
I11
sViron
p3777
I45
sVbudget
p3778
I82
sVsolely
p3779
I17
sVminus
p3780
I13
sVperspective
p3781
I31
sVraf
p3782
I19
sVbridge
p3783
I58
sVfashion
p3784
I45
sVran
p3785
I87
sVreturn
p3786
I78
sVtalking
p3787
I128
sVrat
p3788
I11
sVmanner
p3789
I61
sV1970
p3790
I26
sVseminar
p3791
I12
sVrelatively
p3792
I79
sVforced
p3793
I74
sVstrength
p3794
I72
sVrealm
p3795
I11
sV1969
p3796
I20
sV1964
p3797
I18
sV1965
p3798
I16
sVlatter
p3799
I78
sV1967
p3800
I21
sV1960
p3801
I15
sVisolated
p3802
I12
sVthorough
p3803
I11
sVsituated
p3804
I20
sVexplanations
p3805
I17
sVrome
p3806
I34
sVderek
p3807
I20
sVforces
p3808
I114
sVlaughed
p3809
I49
sVeffectiveness
p3810
I21
sVexplanation
p3811
I47
sVcircles
p3812
I17
sVnobody
p3813
I62
sVthough
p3814
I99
sVbruce
p3815
I17
sVcentres
p3816
I52
sVwhat
p3817
I2493
sVexercised
p3818
I15
sVextending
p3819
I16
sVinvolving
p3820
I43
sVgermany
p3821
I106
sVplenty
p3822
I46
sVexercises
p3823
I16
sVassessed
p3824
I22
sVcoin
p3825
I12
sS'the'
p3826
I61847
sVgrave
p3827
I13
sVelections
p3828
I59
sVcalculated
p3829
I24
sVmetal
p3830
I46
sVtreaty
p3831
I50
sVleaflet
p3832
I12
sVaccounted
p3833
I14
sVaunt
p3834
I31
sVenterprise
p3835
I42
sVchris
p3836
I45
sVvoting
p3837
I15
sVnotion
p3838
I36
sVfitted
p3839
I33
sVreserve
p3840
I14
sVd.
p3841
I15
sVpope
p3842
I19
sVreductions
p3843
I13
sVlewis
p3844
I37
sVsan nop-
p3845
I25
sVlabels
p3846
I12
sVbrief
p3847
I47
sVradio
p3848
I87
sVsolutions
p3849
I26
sVearth
p3850
I97
sVavailability
p3851
I19
sVtraditions
p3852
I16
sVexecution
p3853
I14
sVpolitician
p3854
I11
sVjust
p3855
I14
sVpeasants
p3856
I17
sVimplementation
p3857
I28
sVsituations
p3858
I39
sVguidance
p3859
I32
sVsentence
p3860
I58
sVpursuing
p3861
I10
sVannounce
p3862
I11
sVadequate
p3863
I36
sVpersonality
p3864
I29
sVcontinuity
p3865
I13
sVdo
p3866
I2802
sVmixture
p3867
I33
sVetc.
p3868
I24
sVhostility
p3869
I14
sVwatch
p3870
I29
sVfluid
p3871
I15
sVleisure
p3872
I29
sVcriticized
p3873
I11
sVwatson
p3874
I12
sVdespite
p3875
I146
sVreport
p3876
I29
sVnasty
p3877
I18
sVdu
p3878
I12
sVdr
p3879
I112
sVtribute
p3880
I15
sVhall
p3881
I118
sVruns
p3882
I13
sVcountries
p3883
I168
sVexchanged
p3884
I10
sVpublic
p3885
I96
sVtwice
p3886
I63
sVshots
p3887
I18
sVboring
p3888
I16
sVidentify
p3889
I50
sVimplication
p3890
I13
sVsquadron
p3891
I13
sVautomatic
p3892
I23
sVsteam
p3893
I28
sVsecretary
p3894
I154
sVobserver
p3895
I17
sVhabit
p3896
I23
sVw.
p3897
I16
sVkinnock
p3898
I15
sV1960s
p3899
I30
sVresist
p3900
I20
sVdepends
p3901
I50
sVsubmitted
p3902
I22
sVcattle
p3903
I26
sVdiscussions
p3904
I31
sVdisturbing
p3905
I10
sVtechniques
p3906
I59
sVcapacity
p3907
I59
sVtemptation
p3908
I11
sVaway
p3909
I120
sVgentleman
p3910
I52
sVcompensation
p3911
I31
sVbecause*
p3912
I852
sVcontinually
p3913
I13
sVgrandmother
p3914
I14
sVmud
p3915
I19
sVcatalogue
p3916
I24
sVunable
p3917
I64
sVfinger
p3918
I32
sVcooperation
p3919
I12
sVhopefully
p3920
I19
sVmum
p3921
I86
sVdrawn
p3922
I75
sVapproach
p3923
I17
sVdiscovery
p3924
I28
sVwe
p3925
I3578
sVloose
p3926
I26
sVterms
p3927
I165
sVloves
p3928
I12
sVconfusion
p3929
I29
sVhandful
p3930
I14
sVweak
p3931
I36
sVhowever
p3932
I605
sVboss
p3933
I32
sVrivers
p3934
I20
sVwear
p3935
I43
sVtravellers
p3936
I16
sVnews
p3937
I145
sVpackages
p3938
I15
sVholds
p3939
I26
sVkitchen
p3940
I82
sVfaced
p3941
I45
sVreceived
p3942
I130
sVprotect
p3943
I51
sVaccused
p3944
I11
sVcow
p3945
I14
sVfavourable
p3946
I15
sVfault
p3947
I34
sVill
p3948
I46
sVmuseum
p3949
I68
sVplayers
p3950
I82
sVgames
p3951
I62
sVbet
p3952
I21
sVreceives
p3953
I13
sVreceiver
p3954
I16
sVrequests
p3955
I13
sVexpense
p3956
I27
sVregarded
p3957
I70
sVnegotiation
p3958
I12
sVtough
p3959
I32
sVcharacter
p3960
I86
sVexcess
p3961
I11
sVkaren
p3962
I16
sVwider
p3963
I49
sVtrust
p3964
I28
sVtelecommunications
p3965
I13
sVhitler
p3966
I17
sVspeak
p3967
I94
sVconference
p3968
I101
sVbathroom
p3969
I25
sVstrong
p3970
I160
sVengines
p3971
I19
sVcondemned
p3972
I14
sVbeen
p3973
I2686
sVquickly
p3974
I124
sVconfident
p3975
I32
sVbeer
p3976
I33
sVspread
p3977
I17
sVexpected
p3978
I21
sVflexible
p3979
I24
sVwarmth
p3980
I20
sVduties
p3981
I39
sVfamilies
p3982
I83
sVeasy
p3983
I143
sVattacked
p3984
I29
sVdrugs
p3985
I53
sVconcerning
p3986
I31
sVspeeches
p3987
I10
sVenterprises
p3988
I17
sVcoherent
p3989
I11
sVcraft
p3990
I20
sVcorruption
p3991
I14
sVcatch
p3992
I43
sVapplied
p3993
I66
sVtide
p3994
I18
sVhas
p3995
I2593
sVahead
p3996
I26
sVpublicly
p3997
I16
sVair
p3998
I189
sVaim
p3999
I14
sVreferendum
p4000
I14
sVapplies
p4001
I28
sVstopping
p4002
I16
sVaid
p4003
I78
sVpossess
p4004
I15
sVvoice
p4005
I74
sVprocedure
p4006
I58
sVmistake
p4007
I37
sVstretching
p4008
I11
sVunfortunate
p4009
I16
sVexpenses
p4010
I20
sVtissue
p4011
I21
sVexperts
p4012
I32
sVcomparative
p4013
I14
sVcontaining
p4014
I41
sVdescent
p4015
I11
sVperform
p4016
I32
sVsuggest
p4017
I89
sVwound
p4018
I11
sVbeside
p4019
I58
sVcomplex
p4020
I23
sVadvances
p4021
I12
sVplates
p4022
I23
sVseveral
p4023
I240
sVwheel
p4024
I26
sVindependent
p4025
I98
sVsatellite
p4026
I17
sVraid
p4027
I13
sVwelsh
p4028
I37
sVpick
p4029
I60
sVrail
p4030
I40
sVrain
p4031
I62
sVhand
p4032
I344
sVpubs
p4033
I13
sVproducers
p4034
I18
sVcharacters
p4035
I39
sVinsisted
p4036
I34
sVblamed
p4037
I14
sVcycle
p4038
I32
sVcentred
p4039
I13
sVshortly
p4040
I38
sVwhereby
p4041
I20
sV1979
p4042
I54
sV1978
p4043
I37
sV1977
p4044
I37
sVcharlie
p4045
I28
sVpossessed
p4046
I16
sV1974
p4047
I33
sV1973
p4048
I29
sV1972
p4049
I27
sV1971
p4050
I26
sVocean
p4051
I20
sVsavings
p4052
I31
sVclient
p4053
I61
sVgreatest
p4054
I51
sVmother
p4055
I262
sVhearts
p4056
I15
sVjean
p4057
I30
sVcamps
p4058
I11
sVspencer
p4059
I13
sVbackground
p4060
I62
sVproposed
p4061
I39
sVunemployment
p4062
I64
sVphoto
p4063
I12
sVnewton
p4064
I15
sV43
p4065
I12
sVstarting
p4066
I17
sVmid
p4067
I15
sVmechanism
p4068
I29
sVvictim
p4069
I39
sVcampbell
p4070
I16
sVadding
p4071
I32
sVhills
p4072
I31
sVphotographer
p4073
I11
sVpassive
p4074
I14
sVwright
p4075
I20
sVshout
p4076
I10
sVbelongs
p4077
I12
sVtransformed
p4078
I16
sVboard
p4079
I134
sVtechnological
p4080
I16
sVdisadvantage
p4081
I12
sVhumanity
p4082
I12
sVgave
p4083
I229
sVshoulder
p4084
I46
sVdignity
p4085
I13
sVbands
p4086
I20
sVbreaks
p4087
I11
sVsussex
p4088
I20
sVarab
p4089
I22
sVfusion
p4090
I12
sVnewcastle
p4091
I27
sVjudge
p4092
I20
sVburnt
p4093
I10
sVadvanced
p4094
I17
sVapart
p4095
I35
sVappearing
p4096
I14
sVgift
p4097
I30
sV55
p4098
I12
sVhunt
p4099
I10
sV50
p4100
I67
sVsoap
p4101
I13
sVsecurities
p4102
I19
sVoffices
p4103
I44
sVofficer
p4104
I92
sVarbitrary
p4105
I11
sVhung
p4106
I29
sVsecurity
p4107
I138
sVtowards
p4108
I286
sV1976
p4109
I36
sVlectures
p4110
I15
sVsuccessfully
p4111
I34
sVunnecessary
p4112
I19
sVborn
p4113
I82
sVclubs
p4114
I38
sVelection
p4115
I98
sVideal
p4116
I47
sVescape
p4117
I19
sVbore
p4118
I12
sV52
p4119
I10
sV1975
p4120
I34
sVici
p4121
I14
sVcooper
p4122
I12
sVpurple
p4123
I11
sVestablish
p4124
I53
sVcentre
p4125
I230
sVcomments
p4126
I41
sVeverything
p4127
I187
sVqueen
p4128
I77
sVasking
p4129
I63
sVdenied
p4130
I37
sVbeating
p4131
I15
sVchristmas
p4132
I88
sVparticipation
p4133
I27
sVcore
p4134
I34
sVdefend
p4135
I21
sVdropped
p4136
I57
sVmarketing
p4137
I49
sVcorn
p4138
I12
sVnight
p4139
I365
sVcontest
p4140
I14
sVillustration
p4141
I12
sVgraduates
p4142
I11
sVdiscount
p4143
I19
sVplc
p4144
I16
sVarchitectural
p4145
I12
sVpost
p4146
I88
sVproperties
p4147
I41
sVtakes
p4148
I118
sVtrophy
p4149
I13
sVcensus
p4150
I10
sVmore than*
p4151
I148
sVeat
p4152
I75
sVattacks
p4153
I31
sVtheirs
p4154
I10
sVnewspapers
p4155
I35
sVmonths
p4156
I248
sVdistinct
p4157
I32
sVdinner
p4158
I63
sVmisleading
p4159
I13
sVensure
p4160
I103
sVhorizon
p4161
I14
sVsteadily
p4162
I17
sVefforts
p4163
I56
sVwiped
p4164
I12
sVconsiderations
p4165
I24
sVprimitive
p4166
I17
sVaha
p4167
I26
sVdilemma
p4168
I11
sVcivic
p4169
I10
sVcivil
p4170
I87
sVpays
p4171
I15
sVprisoners
p4172
I30
sVprofession
p4173
I31
sVbound
p4174
I47
sVbath
p4175
I12
sVaccommodate
p4176
I14
sVprisoner
p4177
I17
sVworking-class
p4178
I19
sVcoastal
p4179
I14
sVformidable
p4180
I11
sVbalanced
p4181
I11
sVdean
p4182
I18
sVrounds
p4183
I12
sVstrangely
p4184
I10
sVexisted
p4185
I25
sVrely
p4186
I27
sVdeal
p4187
I67
sVsally
p4188
I15
sVlegislation
p4189
I70
sVdiseases
p4190
I18
sVclass
p4191
I181
sVstuck
p4192
I13
sVaccordingly
p4193
I23
sVclinical
p4194
I30
sVway
p4195
I958
sVcrews
p4196
I11
sVresearchers
p4197
I25
sVwas
p4198
I9236
sVwar
p4199
I279
sVsynthesis
p4200
I12
sVlowest
p4201
I17
sVhead
p4202
I13
sVwashed
p4203
I19
sVamateur
p4204
I12
sVdeaf
p4205
I27
sVbecoming
p4206
I71
sVdifferences
p4207
I78
sVpp.
p4208
I55
sVpayable
p4209
I17
sVheat
p4210
I54
sVneedles
p4211
I11
sVhear
p4212
I137
sVdead
p4213
I114
sVsolar
p4214
I13
sVsustained
p4215
I12
sVremoved
p4216
I59
sVtrue
p4217
I181
sVabsent
p4218
I15
sVthrow
p4219
I31
sVresponding
p4220
I11
sVflavour
p4221
I15
sVslope
p4222
I14
sVversions
p4223
I24
sVmaximum
p4224
I16
sVcrystal
p4225
I15
sVsides
p4226
I63
sVemotional
p4227
I36
sVheaded
p4228
I27
sVpromises
p4229
I10
sVgather
p4230
I16
sVmoore
p4231
I19
sVcomputing
p4232
I19
sVfury
p4233
I11
sVstronger
p4234
I26
sVabstract
p4235
I19
sVevidence
p4236
I215
sVguessed
p4237
I12
sVexpertise
p4238
I26
sVpromised
p4239
I39
sVprayer
p4240
I21
sVrequest
p4241
I38
sVtrip
p4242
I45
sVconstructed
p4243
I25
sVlooked
p4244
I352
sVgreater nop-
p4245
I13
sVfaithful
p4246
I10
sVdying
p4247
I11
sVno
p4248
I17
sVwhereas
p4249
I62
sVstake
p4250
I19
sVwhen
p4251
I431
sVreality
p4252
I65
sVtim
p4253
I34
sVtin
p4254
I20
sVinterested
p4255
I88
sVholding
p4256
I72
sVpapers
p4257
I64
sVtest
p4258
I28
sVtie
p4259
I10
sVunwilling
p4260
I10
sVshort-term
p4261
I17
sVerosion
p4262
I12
sVscored
p4263
I28
sVpicture
p4264
I105
sVbrothers
p4265
I36
sVo'clock
p4266
I47
sVwelcome
p4267
I10
sVconvincing
p4268
I12
sVpolite
p4269
I12
sVlet's
p4270
I84
sVrising
p4271
I11
sVscores
p4272
I17
sVdischarge
p4273
I11
sVyounger
p4274
I53
sVregime
p4275
I35
sVfaster
p4276
I12
sVnormally
p4277
I83
sVinterval
p4278
I14
sVmodules
p4279
I27
sVtogether
p4280
I308
sVbeds
p4281
I21
sVloyal
p4282
I14
sVvietnam
p4283
I18
sVreception
p4284
I24
sVremarked
p4285
I17
sVserious
p4286
I124
sVsongs
p4287
I29
sVconcept
p4288
I64
sVremarkable
p4289
I35
sVambulance
p4290
I17
sVdance
p4291
I14
sVrob
p4292
I12
sVvarying
p4293
I13
sValternatives
p4294
I17
sVfocus
p4295
I21
sVleads
p4296
I37
sVroy
p4297
I18
sVdelays
p4298
I11
sVice
p4299
I40
sVgrateful
p4300
I27
sVbattle
p4301
I63
sVremarkably
p4302
I15
sVrow
p4303
I48
sVlayers
p4304
I14
sVcertainly
p4305
I186
sV1949
p4306
I10
sVzone
p4307
I26
sVdominated
p4308
I27
sVgraph
p4309
I10
sV1940
p4310
I12
sV1946
p4311
I10
sV1947
p4312
I12
sV1944
p4313
I11
sVpassage
p4314
I40
sVenvironment
p4315
I130
sVcharge
p4316
I14
sVfog
p4317
I10
sVpermanently
p4318
I12
sVrhythm
p4319
I15
sVterror
p4320
I15
sVsing
p4321
I21
sVshakespeare
p4322
I19
sVconservation
p4323
I14
sVdivision
p4324
I90
sVsupported
p4325
I56
sVfederation
p4326
I22
sVadvantage
p4327
I73
sVnone
p4328
I84
sVchoosing
p4329
I17
sVliability
p4330
I39
sVanonymous
p4331
I12
sVentries
p4332
I18
sVcook
p4333
I15
sVtrouble
p4334
I89
sV1968
p4335
I24
sVcool
p4336
I31
sVperceived
p4337
I17
sVsighed
p4338
I21
sVimpressive
p4339
I30
sVpoliceman
p4340
I21
sVturns
p4341
I32
sVposts
p4342
I22
sVgun
p4343
I35
sVstandards
p4344
I96
sVrivals
p4345
I15
sVp
p4346
I10
sVrecall
p4347
I25
sVquick
p4348
I58
sVguy
p4349
I18
sVparked
p4350
I13
sVupper
p4351
I54
sVmilton
p4352
I15
sVbrave
p4353
I17
sVsays
p4354
I398
sVtrend
p4355
I26
sVdiscover
p4356
I33
sVd
p4357
I12
sVinland
p4358
I12
sVcolin
p4359
I25
sVcost
p4360
I57
sVtrent
p4361
I11
sVbacteria
p4362
I13
sVdrinks
p4363
I21
sVappear
p4364
I109
sVcomparable
p4365
I19
sVassistance
p4366
I43
sVexclude
p4367
I13
sVshares
p4368
I79
sVuniform
p4369
I11
sVgoes
p4370
I148
sVshared
p4371
I15
sVprincipal
p4372
I40
sVsatisfy
p4373
I20
sVsupporting
p4374
I11
sVken
p4375
I30
sVexplosion
p4376
I17
sVmorgan
p4377
I18
sVconfirmation
p4378
I12
sVgenes
p4379
I21
sVcos*
p4380
I163
sVwater
p4381
I349
sVabandon
p4382
I12
sVtwentieth
p4383
I18
sVgroups
p4384
I193
sVdisappeared
p4385
I33
sVappears
p4386
I77
sVchange
p4387
I119
sVsending
p4388
I26
sVdec
p4389
I16
sVflames
p4390
I13
sVhealthy
p4391
I36
sVpublisher
p4392
I15
sVdublin
p4393
I23
sVsixties
p4394
I14
sVtrial
p4395
I65
sVusually
p4396
I191
sVcorp
p4397
I52
sVweird
p4398
I11
sVhistory
p4399
I193
sVpurchaser
p4400
I18
sVchurchill
p4401
I14
sVretired
p4402
I11
sVhumour
p4403
I22
sVextra
p4404
I92
sVmarked
p4405
I21
sV1966
p4406
I17
sVkeeper
p4407
I14
sVdurham
p4408
I25
sVpreventing
p4409
I12
sV1st
p4410
I13
sVshelley
p4411
I11
sVcrisis
p4412
I59
sVmarket
p4413
I11
sVrussell
p4414
I21
sVprove
p4415
I57
sVathens
p4416
I11
sVangela
p4417
I11
sVpermitted
p4418
I21
sVstored
p4419
I19
sVterritories
p4420
I14
sVlive
p4421
I29
sVandy
p4422
I28
sVmemory
p4423
I76
sVaustralian
p4424
I24
sVtoday
p4425
I263
sVchapter
p4426
I149
sVentrance
p4427
I31
sVsessions
p4428
I21
sVclub
p4429
I164
sVshare
p4430
I54
sVenvelope
p4431
I14
sVclue
p4432
I11
sVemployee
p4433
I31
sVcommissioned
p4434
I14
sVhesitated
p4435
I15
sVcases
p4436
I183
sVorganizations
p4437
I30
sVca~
p4438
I318
sVcar
p4439
I278
sVcap
p4440
I20
sVmodified
p4441
I12
sVcat
p4442
I39
sVdistricts
p4443
I18
sVincidents
p4444
I15
sVcan
p4445
I2354
sVkeynes
p4446
I10
sVcab
p4447
I15
sVlaughter
p4448
I22
sVsocial
p4449
I422
sVregularly
p4450
I39
sVdedicated
p4451
I12
sVnursing
p4452
I12
sVfigure
p4453
I170
sV1962
p4454
I14
sVrecalled
p4455
I18
sVdecember
p4456
I94
sVchip
p4457
I18
sV1980s
p4458
I38
sVheard
p4459
I202
sVstroke
p4460
I13
sVchin
p4461
I16
sVperformed
p4462
I39
sVphrase
p4463
I30
sVhandle
p4464
I12
sVclothing
p4465
I21
sVserum
p4466
I13
sVparliamentary
p4467
I43
sVproductive
p4468
I14
sVrequirements
p4469
I60
sVinheritance
p4470
I12
sVfortunately
p4471
I16
sVrobinson
p4472
I16
sVdiscussion
p4473
I85
sVbonds
p4474
I19
sV1
p4475
I385
sVplaintiff
p4476
I30
sVvital
p4477
I51
sVcriterion
p4478
I13
sVfourth
p4479
I61
sVplus
p4480
I70
sVspeaks
p4481
I14
sVdominance
p4482
I11
sVeconomy
p4483
I105
sVarmies
p4484
I10
sVproduct
p4485
I111
sVinformation
p4486
I386
sVuse
p4487
I310
sVsouthern
p4488
I55
sVneeds
p4489
I97
sVmotorway
p4490
I12
sVcrashed
p4491
I13
sVproduce
p4492
I110
sVislands
p4493
I36
sVrepresentations
p4494
I14
sVheroes
p4495
I11
sVeighth
p4496
I13
sVlifting
p4497
I10
sVclassroom
p4498
I23
sVtories
p4499
I20
sVbranches
p4500
I32
sVremember
p4501
I191
sVsucceeded
p4502
I26
sVwhenever
p4503
I32
sVfutures
p4504
I14
sVexplicit
p4505
I19
sVinform
p4506
I15
sVgap
p4507
I34
sVrepresentation
p4508
I37
sVtypical
p4509
I49
sVexclusive
p4510
I21
sVno.
p4511
I33
sVserving
p4512
I25
sVcorrelation
p4513
I14
sVindeed
p4514
I188
sVmidnight
p4515
I19
sVbrain
p4516
I47
sVstatistical
p4517
I21
sVmanagers
p4518
I58
sVcold
p4519
I23
sVstill
p4520
I29
sVworship
p4521
I13
sVblocked
p4522
I13
sVacknowledge
p4523
I15
sVprocedures
p4524
I53
sVorganisation
p4525
I83
sVpresence
p4526
I80
sVforms
p4527
I18
sVplatform
p4528
I26
sVwindow
p4529
I106
sVoffers
p4530
I13
sVfarmer
p4531
I22
sVipswich
p4532
I12
sVnorway
p4533
I15
sVstruggling
p4534
I16
sVcorrespondence
p4535
I15
sVlonely
p4536
I18
sVhalt
p4537
I12
sVobtaining
p4538
I16
sVevolution
p4539
I25
sVintroduce
p4540
I35
sVdelighted
p4541
I26
sVunderneath
p4542
I10
sV1991
p4543
I128
sV1957
p4544
I12
sV1956
p4545
I11
sV1951
p4546
I10
sV1950
p4547
I13
sV1953
p4548
I10
sVhalf
p4549
I16
sVnot
p4550
I4626
sVfeature
p4551
I54
sVnow
p4552
I1382
sVprovision
p4553
I87
sV1958
p4554
I11
sVnor
p4555
I124
sVterm
p4556
I123
sVentity
p4557
I12
sVequality
p4558
I15
sVname
p4559
I13
sVlies
p4560
I12
sVservant
p4561
I18
sVjanuary
p4562
I102
sVdrop
p4563
I22
sVredundancy
p4564
I11
sVacademy
p4565
I14
sVpossibilities
p4566
I25
sVrealistic
p4567
I19
sVussr
p4568
I17
sVrangers
p4569
I12
sVrealise
p4570
I39
sVshy
p4571
I11
sVentirely
p4572
I69
sVindividually
p4573
I11
sVdomain
p4574
I17
sVeh
p4575
I35
sVchallenged
p4576
I16
sVed
p4577
I11
sVeg
p4578
I18
sVyeah
p4579
I834
sVhurried
p4580
I12
sVchallenges
p4581
I11
sVelectorate
p4582
I11
sVfires
p4583
I12
sVcatching
p4584
I13
sVbegun
p4585
I42
sVyear
p4586
I737
sVet
p4587
I30
sVhappen
p4588
I88
sVavoided
p4589
I22
sVadequately
p4590
I11
sVintended
p4591
I70
sValbum
p4592
I22
sVshown
p4593
I150
sVopened
p4594
I115
sVspace
p4595
I125
sVprofit
p4596
I56
sVfrightened
p4597
I21
sVfurthermore
p4598
I29
sVfactory
p4599
I46
sVincrease
p4600
I73
sVattracted
p4601
I28
sVkent
p4602
I26
sVchurches
p4603
I35
sVreceiving
p4604
I29
sVshows
p4605
I18
sVeagle
p4606
I13
sVattended
p4607
I35
sVtheory
p4608
I131
sVet al.
p4609
I12
sVhull
p4610
I11
sVcontain
p4611
I45
sVadvantages
p4612
I29
sVcarl
p4613
I11
sVobligation
p4614
I22
sVmarine
p4615
I20
sVaccommodation
p4616
I44
sVcard
p4617
I57
sVcare
p4618
I51
sVpartner
p4619
I49
sVteachers
p4620
I116
sVimpose
p4621
I19
sVbritish
p4622
I357
sVhonest
p4623
I30
sVmotion
p4624
I46
sVturn
p4625
I81
sVplace
p4626
I43
sVswing
p4627
I12
sVpromotion
p4628
I33
sVwidow
p4629
I16
sVchildhood
p4630
I28
sVadventure
p4631
I15
sVorigin
p4632
I29
sVromania
p4633
I12
sVinitial
p4634
I62
sVsurviving
p4635
I12
sVrevenue
p4636
I41
sVomitted
p4637
I11
sVvariables
p4638
I22
sVwaves
p4639
I27
sVsymbolic
p4640
I14
sVyourself
p4641
I107
sVsunlight
p4642
I13
sVdirectly
p4643
I88
sVimpossible
p4644
I71
sVmessage
p4645
I70
sVfight
p4646
I29
sVgeorge
p4647
I111
sV'em
p4648
I16
sVsize
p4649
I127
sVsheep
p4650
I30
sVsheer
p4651
I21
sVian
p4652
I53
sVsheet
p4653
I42
sVsilent
p4654
I38
sVdistrict
p4655
I75
sVvirgin
p4656
I15
sVcaught
p4657
I86
sVbreed
p4658
I12
sVeurope
p4659
I181
sVanderson
p4660
I15
sVplastic
p4661
I41
sVhouseholds
p4662
I18
sVreturns
p4663
I12
sVfought
p4664
I30
sVtragic
p4665
I12
sVconvention
p4666
I35
sVlegally
p4667
I12
sVwhite
p4668
I12
sVnational
p4669
I376
sVfriend
p4670
I164
sVgives
p4671
I104
sVexploring
p4672
I10
sVmostly
p4673
I39
sVcope
p4674
I40
sVseason
p4675
I109
sVtaxation
p4676
I25
sValan
p4677
I52
sVhut
p4678
I12
sVreleased
p4679
I50
sVcopy
p4680
I51
sVholder
p4681
I29
sVappreciated
p4682
I15
sVspecify
p4683
I13
sVpopulation
p4684
I132
sVwide
p4685
I113
sVtelevision
p4686
I100
sVunfortunately
p4687
I47
sVcrack
p4688
I12
sVrequire
p4689
I69
sVdiplomatic
p4690
I20
sVtransferred
p4691
I31
sVr
p4692
I12
sVaesthetic
p4693
I12
sVcards
p4694
I39
sVoutcome
p4695
I37
sVpublished
p4696
I98
sVand
p4697
I26817
sVinvestors
p4698
I27
sVanc
p4699
I10
sVcraig
p4700
I13
sVann
p4701
I19
sVpremier
p4702
I17
sVovernight
p4703
I12
sValready
p4704
I343
sVmedium
p4705
I24
sVrent
p4706
I28
sVanger
p4707
I33
sVbreakfast
p4708
I44
sVrecover
p4709
I20
sVany
p4710
I20
sVprosperity
p4711
I11
sVconversion
p4712
I21
sVcorbett
p4713
I15
sVform
p4714
I79
sVmanufacturers
p4715
I28
sVideas
p4716
I111
sVequipment
p4717
I89
sVmr.
p4718
I148
sVattempted
p4719
I27
sVobjective
p4720
I17
sVstrengths
p4721
I11
sVbegin
p4722
I75
sVsure
p4723
I240
sVmultiple
p4724
I22
sVfate
p4725
I22
sVprice
p4726
I170
sVneatly
p4727
I13
sVfalls
p4728
I22
sVvisitors
p4729
I48
sVimportantly
p4730
I13
sVsuccessive
p4731
I19
sVcleared
p4732
I27
sVforever
p4733
I18
sVsouth-east
p4734
I13
sVbishops
p4735
I12
sVconsidered
p4736
I134
sVdream
p4737
I38
sVuses
p4738
I18
sVlater
p4739
I78
sVimplications
p4740
I45
sVhungry
p4741
I19
sVmrs
p4742
I198
sVpattern
p4743
I91
sVuncle
p4744
I35
sVsenior
p4745
I82
sVtypically
p4746
I21
sVquantity
p4747
I24
sVdetective
p4748
I18
sVleicester
p4749
I19
sVgerman
p4750
I16
sVworkshops
p4751
I14
sVallegations
p4752
I18
sVfifty
p4753
I86
sVdiscovered
p4754
I64
sVadviser
p4755
I15
sVlaunched
p4756
I45
sVcomplaints
p4757
I27
sVsuperb
p4758
I21
sVfifth
p4759
I35
sVgeography
p4760
I16
sVratio
p4761
I29
sVgulf
p4762
I24
sVtitle
p4763
I97
sVnodded
p4764
I51
sVproportion
p4765
I63
sVwritten
p4766
I33
sVcrime
p4767
I72
sVhierarchy
p4768
I17
sVonly
p4769
I231
sVwood
p4770
I22
sVbelieving
p4771
I14
sVessence
p4772
I18
sVthompson
p4773
I14
sVimprove
p4774
I62
sVwool
p4775
I18
sVcorrectly
p4776
I19
sVjazz
p4777
I10
sVexpectation
p4778
I13
sVtruly
p4779
I32
sVhonours
p4780
I14
sVtrade
p4781
I191
sVcelebrate
p4782
I14
sVclosure
p4783
I19
sVreveal
p4784
I27
sVregarding
p4785
I20
sVleather
p4786
I26
sVseldom
p4787
I15
sVnaked
p4788
I20
sVjokes
p4789
I11
sVembassy
p4790
I13
sVpredicted
p4791
I16
sVthrough
p4792
I95
sVtent
p4793
I12
sVdiscussing
p4794
I20
sVhusband
p4795
I112
sVignored
p4796
I32
sVconcert
p4797
I19
sVburst
p4798
I19
sVphysically
p4799
I20
sVcommitted
p4800
I46
sVnicholson
p4801
I11
sVconversations
p4802
I10
sVconnections
p4803
I21
sVelected
p4804
I45
sVnamely
p4805
I22
sVactively
p4806
I15
sVcollege
p4807
I102
sVparking
p4808
I15
sVstanley
p4809
I14
sVsport
p4810
I45
sVencouraged
p4811
I46
sVsurfaces
p4812
I14
sVfails
p4813
I19
sVdetect
p4814
I13
sVvoluntary
p4815
I39
sVmortgage
p4816
I29
sVfarmers
p4817
I50
sVfederal
p4818
I38
sVsubsequent
p4819
I43
sVreview
p4820
I17
sVlexical
p4821
I11
sVdefinite
p4822
I16
sVcommitments
p4823
I13
sVweapons
p4824
I40
sVnorth-west
p4825
I10
sVoutside
p4826
I37
sVbetween
p4827
I903
sVjustified
p4828
I20
sVarrival
p4829
I34
sVnotice
p4830
I36
sVrumours
p4831
I13
sVfilter
p4832
I15
sVflow
p4833
I45
sVguitar
p4834
I27
sVunusually
p4835
I10
sV20
p4836
I131
sVcities
p4837
I44
sVcome
p4838
I695
sVreaction
p4839
I56
sVstages
p4840
I41
sVinstallation
p4841
I13
sVefficiency
p4842
I37
sVregion
p4843
I99
sVpriests
p4844
I12
sVquiet
p4845
I62
sVcontract
p4846
I114
sVtemper
p4847
I12
sVenabling
p4848
I14
sVnineteenth-century
p4849
I10
sVrailway
p4850
I73
sVcomes
p4851
I160
sVnearby
p4852
I14
sVduty
p4853
I81
sVpakistan
p4854
I18
sVafterwards
p4855
I46
sV150
p4856
I18
sVpot
p4857
I19
sVcolony
p4858
I11
sVperiod
p4859
I243
sVinsist
p4860
I16
sVresentment
p4861
I10
sV60
p4862
I41
sVexploit
p4863
I12
sVscheduled
p4864
I14
sVconfirmed
p4865
I48
sVlearning
p4866
I38
sVwound*
p4867
I10
sVmoreover
p4868
I43
sVbizarre
p4869
I11
sVpoll
p4870
I28
sVnoisy
p4871
I10
sVturkey
p4872
I16
sVsave
p4873
I67
sVoliver
p4874
I23
sVhoward
p4875
I27
sV50%
p4876
I11
sVinformed
p4877
I33
sVterritorial
p4878
I12
sVtropical
p4879
I18
sVpeaceful
p4880
I17
sVhelicopter
p4881
I11
sVhardly
p4882
I88
sV500
p4883
I23
sVengine
p4884
I50
sVdirection
p4885
I87
sVindirect
p4886
I16
sVandrew
p4887
I45
sVwounds
p4888
I10
sVobservers
p4889
I14
sVminister
p4890
I237
sVinstant
p4891
I12
sVcareful
p4892
I52
sVirrelevant
p4893
I14
sVchampions
p4894
I15
sVpilot
p4895
I31
sVcase
p4896
I431
sVmyself
p4897
I125
sVdeveloping
p4898
I31
sVthese
p4899
I1254
sVmount
p4900
I11
sVcash
p4901
I82
sVarnold
p4902
I10
sVtrick
p4903
I14
sVcast
p4904
I30
sVtransactions
p4905
I21
sVfreely
p4906
I16
sVshops
p4907
I52
sVconverted
p4908
I20
sVtaking
p4909
I218
sVdatabases
p4910
I10
sVorientation
p4911
I11
sVcoupled
p4912
I12
sVsoil
p4913
I41
sVtelephone
p4914
I14
sVcommander
p4915
I20
sVcouples
p4916
I16
sVbias
p4917
I14
sVattributed
p4918
I16
sVheels
p4919
I12
sVkenya
p4920
I10
sVworry
p4921
I47
sValright*
p4922
I40
sVdevelop
p4923
I86
sVvivid
p4924
I10
sVcontents
p4925
I30
sVauthor
p4926
I43
sVmedia
p4927
I80
sVgranted
p4928
I46
sVreminded
p4929
I24
sVangeles nop-
p4930
I11
sVgentlemen
p4931
I15
sVya
p4932
I14
sVinquiry
p4933
I35
sVshit
p4934
I19
sVreminder
p4935
I10
sVphysical
p4936
I95
sVevents
p4937
I105
sVweek
p4938
I322
sVnoble
p4939
I13
sVfinish
p4940
I16
sVcenturies
p4941
I36
sVenjoyment
p4942
I10
sVnest
p4943
I13
sVrefusal
p4944
I19
sVdriver
p4945
I54
sVdriven
p4946
I30
sVpersons
p4947
I40
sVstatutory
p4948
I37
sVmarxist
p4949
I12
sVarose
p4950
I16
sVchanging
p4951
I24
sVanticipated
p4952
I11
sVtradition
p4953
I51
sVreference
p4954
I77
sVcomplained
p4955
I19
sVmodes
p4956
I12
sVsnow
p4957
I30
sVcharges
p4958
I60
sVconstitutional
p4959
I31
sVobservations
p4960
I22
sVbreeze
p4961
I14
sVrelief
p4962
I66
sVcomponents
p4963
I32
sVrelied
p4964
I13
sVinability
p4965
I11
sVmodel
p4966
I130
sVreward
p4967
I17
sVbodies
p4968
I70
sVjustify
p4969
I21
sVtaxi
p4970
I19
sVam*
p4971
I10
sVtip
p4972
I20
sVactions
p4973
I48
sVfoot
p4974
I73
sVviolent
p4975
I28
sVkill
p4976
I46
sVhanded
p4977
I36
sVtouch
p4978
I26
sVpolish
p4979
I15
sVspeed
p4980
I70
sVcaptured
p4981
I17
sVblow
p4982
I13
sVannouncement
p4983
I24
sVdeath
p4984
I205
sVfeminist
p4985
I14
sVthinking
p4986
I43
sVrose
p4987
I25
sVseems
p4988
I212
sVexcept
p4989
I20
sVimprovement
p4990
I42
sVverse
p4991
I14
sVsetting
p4992
I30
sVtreatment
p4993
I122
sVsamples
p4994
I27
sVthoughts
p4995
I47
sVrepublic
p4996
I43
sVstruck
p4997
I42
sVross
p4998
I19
sVstyles
p4999
I20
sVspectacular
p5000
I19
sVdesperately
p5001
I20
sVread
p5002
I225
sVoffence
p5003
I37
sVspecimen
p5004
I11
sVvirginia
p5005
I12
sVearly
p5006
I76
sVinflation
p5007
I45
sVlistening
p5008
I34
sVconfined
p5009
I22
sVusing
p5010
I247
sVaccepted
p5011
I10
sVlady
p5012
I97
sVvanished
p5013
I11
sVrear
p5014
I11
sVfurniture
p5015
I35
sVacute
p5016
I23
sVfortune
p5017
I21
sVkennedy
p5018
I13
sVphotographs
p5019
I33
sVpatrick
p5020
I30
sVcollective
p5021
I24
sVpregnant
p5022
I22
sVtend
p5023
I62
sVmiracle
p5024
I11
sVannually
p5025
I11
sVbenefit
p5026
I30
sVfully
p5027
I89
sVoutput
p5028
I58
sVtower
p5029
I34
sVattempting
p5030
I24
sVtwelve
p5031
I66
sVjewellery
p5032
I13
sVexposed
p5033
I20
sVdaddy
p5034
I22
sVcompetition
p5035
I94
sVeddie
p5036
I12
sVtable
p5037
I201
sVduration
p5038
I18
sVintend
p5039
I21
sVquestionnaire
p5040
I12
sVintact
p5041
I12
sVprovided
p5042
I30
sVmood
p5043
I33
sVeleanor
p5044
I12
sVrecorded
p5045
I57
sVlegal
p5046
I131
sVmoon
p5047
I29
sVhandicap
p5048
I13
sVdeficit
p5049
I23
sVprovides
p5050
I84
sVwillie
p5051
I13
sVfootball
p5052
I67
sVassembly
p5053
I54
sVbusiness
p5054
I358
sVliquid
p5055
I12
sVsixth
p5056
I25
sVnails
p5057
I13
sVcommunicate
p5058
I15
sV1936
p5059
I10
sVsixty
p5060
I43
sV1939
p5061
I13
sVfrancis
p5062
I25
sVdon
p5063
I13
sVbrighton
p5064
I15
sVon
p5065
I14
sVresponsibilities
p5066
I29
sVok
p5067
I11
sVoh
p5068
I684
sVof
p5069
I310
sVdiscussed
p5070
I70
sVideology
p5071
I21
sVconvenient
p5072
I20
sV'd
p5073
I315
sVstand
p5074
I19
sVdiscrimination
p5075
I20
sVconcentrations
p5076
I21
sVintent
p5077
I12
sVgregory
p5078
I10
sVor
p5079
I3707
sVladies
p5080
I33
sVcambridge
p5081
I36
sVprotests
p5082
I12
sVinclusion
p5083
I12
sVcommunication
p5084
I61
sVauthorities
p5085
I130
sVinvolvement
p5086
I42
sVdetermine
p5087
I39
sVgary
p5088
I24
sVoperator
p5089
I15
sVnowadays
p5090
I16
sVyour
p5091
I1383
sVupstairs
p5092
I25
sVlog
p5093
I11
sVprepare
p5094
I30
sVtutor
p5095
I11
sVassumed
p5096
I42
sVstrictly
p5097
I20
sVthere
p5098
I746
sVracism
p5099
I11
sVchristianity
p5100
I18
sVstrict
p5101
I21
sVpoured
p5102
I18
sVlow
p5103
I158
sVstars
p5104
I39
sVsubjective
p5105
I12
sVcultures
p5106
I16
sVsomerset
p5107
I13
sVvalley
p5108
I44
sVenergy
p5109
I122
sVassumes
p5110
I10
sVtreat
p5111
I30
sVjones
p5112
I46
sVregard
p5113
I17
sVdelayed
p5114
I14
sVamongst
p5115
I45
sVcabinet
p5116
I65
sVtwo-thirds
p5117
I12
sVcottage
p5118
I32
sVtrying
p5119
I185
sVlonger
p5120
I33
sVhire
p5121
I10
sVfraud
p5122
I18
sVapplying
p5123
I20
sVcirculation
p5124
I15
sVflats
p5125
I19
sVgrass
p5126
I41
sVbeliefs
p5127
I24
sVstrongly
p5128
I46
sVtoilet
p5129
I15
sVtaylor
p5130
I36
sV600
p5131
I11
sVcinema
p5132
I19
sVtaste
p5133
I34
sVyacht
p5134
I10
sVpole
p5135
I13
sVdescribe
p5136
I43
sVmoved
p5137
I146
sVsales
p5138
I104
sVbritain
p5139
I251
sVsenses
p5140
I16
sVphotography
p5141
I11
sVgoverned
p5142
I10
sVcorresponding
p5143
I14
sVmoves
p5144
I16
sVhospitals
p5145
I29
sVbishop
p5146
I18
sVhit
p5147
I11
sVreceive
p5148
I75
sVdeserve
p5149
I13
sVstorage
p5150
I30
sVgreen
p5151
I17
sVrubber
p5152
I11
sVroses
p5153
I15
sVthat
p5154
I46
sVvalid
p5155
I23
sV5
p5156
I176
sVevenings
p5157
I15
sVmathematics
p5158
I20
sVyou
p5159
I6954
sVforcing
p5160
I14
sVpoor
p5161
I151
sVrequested
p5162
I15
sVbriefly
p5163
I33
sVchampionship
p5164
I34
sVseparate
p5165
I15
sVsymbol
p5166
I18
sVteeth
p5167
I47
sVincludes
p5168
I68
sVlovers
p5169
I12
sVpeak
p5170
I28
sVsuited
p5171
I15
sVincluded
p5172
I123
sVbrass
p5173
I15
sVstocks
p5174
I16
sVpool
p5175
I45
sVmissed
p5176
I41
sVbuilding
p5177
I28
sVbulk
p5178
I20
sVbooked
p5179
I12
sVcalls
p5180
I30
sVwife
p5181
I171
sVcontrolled
p5182
I10
sVinvest
p5183
I16
sVodds
p5184
I15
sVcurve
p5185
I25
sVdirectors
p5186
I43
sVrestored
p5187
I18
sVdirectory
p5188
I15
sVoverseas
p5189
I12
sVstrings
p5190
I14
sVall
p5191
I193
sVsince
p5192
I29
sVsemantic
p5193
I13
sVlace
p5194
I12
sVchinese
p5195
I40
sVali
p5196
I13
sVclauses
p5197
I13
sVlack
p5198
I10
sVmonth
p5199
I150
sVblanche
p5200
I11
sVceased
p5201
I15
sVdisc
p5202
I16
sVpublish
p5203
I13
sVsmoking
p5204
I11
sVdish
p5205
I16
sVfollow
p5206
I94
sVdisk
p5207
I26
sVdecisions
p5208
I75
sVcarpet
p5209
I24
sVdreadful
p5210
I14
sVapartment
p5211
I13
sVreferring
p5212
I18
sVcliff
p5213
I11
sVsubjected
p5214
I13
sVswitched
p5215
I20
sVprovisions
p5216
I41
sVacting
p5217
I41
sVthursday
p5218
I37
sVremoval
p5219
I21
sVprogram
p5220
I39
sVdepending
p5221
I23
sVsustain
p5222
I13
sVpresentation
p5223
I32
sVtraditionally
p5224
I21
sVactivities
p5225
I116
sVbelonging
p5226
I14
sVglobal
p5227
I36
sVincorporate
p5228
I11
sVworse
p5229
I65
sVconfidential
p5230
I11
sVsong
p5231
I40
sVfar
p5232
I11
sVrod
p5233
I14
sVhorror
p5234
I21
sVfat
p5235
I18
sVcoloured
p5236
I19
sVsons
p5237
I35
sVworst
p5238
I46
sVmps
p5239
I26
sVdecide
p5240
I67
sVpolytechnic
p5241
I12
sVawful
p5242
I31
sVlaser
p5243
I10
sVticket
p5244
I22
sVenter
p5245
I53
sVtreating
p5246
I13
sVthemes
p5247
I16
sVheaven
p5248
I24
sVstimulus
p5249
I15
sVlouis
p5250
I21
sVlist
p5251
I118
sVmanager
p5252
I138
sVgrandfather
p5253
I15
sVrandom
p5254
I18
sVlisa
p5255
I13
sVsmith
p5256
I79
sVprogramme
p5257
I190
sVrats
p5258
I14
sVten
p5259
I203
sVtea
p5260
I86
sVstreets
p5261
I49
sVted
p5262
I11
sVrobyn
p5263
I12
sVgorbachev
p5264
I17
sVrate
p5265
I189
sVinvention
p5266
I11
sVdesign
p5267
I119
sVcoverage
p5268
I22
sVmill
p5269
I33
sVconscience
p5270
I14
sVtrustees
p5271
I12
sVsue
p5272
I16
sVdarkness
p5273
I34
sVconsumers
p5274
I23
sVwitnessed
p5275
I11
sVsun
p5276
I115
sVsum
p5277
I41
sVdirt
p5278
I10
sVanniversary
p5279
I21
sVemotions
p5280
I19
sVmilk
p5281
I48
sVwitnesses
p5282
I16
sVversion
p5283
I81
sVattitudes
p5284
I48
sVlearned
p5285
I46
sVracing
p5286
I23
sVguns
p5287
I20
sVdevoted
p5288
I12
sVtoes
p5289
I10
sVchristian
p5290
I62
sVestate
p5291
I54
sVresponded
p5292
I22
sV1948
p5293
I13
sVanswers
p5294
I32
sVbehaviour
p5295
I123
sVtracks
p5296
I19
sVselective
p5297
I13
sVleeds
p5298
I48
sVwill
p5299
I14
sVrelaxation
p5300
I12
sVdirections
p5301
I22
sViraq
p5302
I32
sVequations
p5303
I11
sVtragedy
p5304
I18
sVdining
p5305
I16
sVnaval
p5306
I15
sVconviction
p5307
I21
sVextraordinary
p5308
I29
sVinspired
p5309
I16
sVlosses
p5310
I38
sVallows
p5311
I41
sVfired
p5312
I20
sVsoldier
p5313
I18
sVamount
p5314
I146
sVadvertising
p5315
I41
sVreal
p5316
I227
sVoptions
p5317
I38
sVtrainer
p5318
I10
sVcup
p5319
I122
sVfamily
p5320
I345
sVsuddenly
p5321
I118
sVrequiring
p5322
I18
sVthatcher
p5323
I34
sVtexts
p5324
I23
sVaimed
p5325
I36
sVtrained
p5326
I30
sVtoys
p5327
I12
sVactress
p5328
I11
sV1945
p5329
I18
sVseventeenth
p5330
I12
sVconventional
p5331
I39
sVproceed
p5332
I21
sVanswered
p5333
I38
sVcontains
p5334
I46
sVsilently
p5335
I12
sVtaken
p5336
I355
sVpromoting
p5337
I15
sVchicken
p5338
I20
sVinjury
p5339
I46
sVmarkets
p5340
I59
sVwealthy
p5341
I14
sVminor
p5342
I47
sVhorses
p5343
I49
sVflat
p5344
I37
sVisrael
p5345
I32
sVknows
p5346
I84
sVincentive
p5347
I13
sVoperators
p5348
I15
sVowners
p5349
I38
sVsite
p5350
I97
sVexcuse
p5351
I14
sVflag
p5352
I15
sVbasically
p5353
I31
sVbroke
p5354
I52
sVknown
p5355
I20
sVbenefits
p5356
I74
sVfactories
p5357
I17
sVproducing
p5358
I40
sVsuffered
p5359
I54
sVglad
p5360
I41
sVhelped
p5361
I76
sVdebates
p5362
I12
sVequation
p5363
I25
sVpolicemen
p5364
I12
sVcoalition
p5365
I24
sVplea
p5366
I12
sVnine
p5367
I136
sVbudgets
p5368
I13
sVgreeted
p5369
I14
sVv
p5370
I10
sVaudiences
p5371
I10
sVspontaneous
p5372
I10
sVoptimistic
p5373
I12
sVembarrassing
p5374
I11
sVbrown
p5375
I38
sVpushed
p5376
I50
sVprotective
p5377
I13
sVarise
p5378
I33
sVcows
p5379
I12
sVpond
p5380
I17
sVswung
p5381
I18
sVspecies
p5382
I96
sVf.
p5383
I11
sVfirmly
p5384
I40
sVinfluenced
p5385
I26
sVbeef
p5386
I15
sVcourt
p5387
I285
sVgoal
p5388
I59
sVrather
p5389
I169
sVclarke
p5390
I20
sVbreaking
p5391
I30
sVliaison
p5392
I10
sVstayed
p5393
I44
sVoccasionally
p5394
I40
sVinfluences
p5395
I14
sVreject
p5396
I15
sVexpecting
p5397
I21
sVignore
p5398
I25
sVexplains
p5399
I25
sVokay
p5400
I17
sVtried
p5401
I150
sVderived
p5402
I33
sVreflect
p5403
I38
sVfa
p5404
I15
sVtries
p5405
I15
sVlighting
p5406
I17
sVseemingly
p5407
I12
sVinvasion
p5408
I19
sVhorizontal
p5409
I12
sVconcentrating
p5410
I12
sVcompulsory
p5411
I17
sVa
p5412
I10
sVshort
p5413
I177
sVsusan
p5414
I21
sVdot
p5415
I11
sVquoted
p5416
I24
sVdocumentation
p5417
I12
sVdeparture
p5418
I23
sVsupervision
p5419
I17
sVshore
p5420
I15
sVshade
p5421
I14
sVbanks
p5422
I66
sVegg
p5423
I25
sVturnover
p5424
I29
sVhelp
p5425
I107
sVseptember
p5426
I104
sVdeveloped
p5427
I15
sVflowers
p5428
I54
sVsoon
p5429
I161
sVmucosa
p5430
I10
sVdisabled
p5431
I31
sVheld
p5432
I276
sVscientist
p5433
I20
sVdarlington
p5434
I56
sV~no*
p5435
I19
sVhell
p5436
I54
sVavenue
p5437
I16
sVstyle
p5438
I107
sVforwards
p5439
I13
sVseverely
p5440
I18
sVpray
p5441
I14
sVfined
p5442
I11
sVreluctance
p5443
I10
sVabbey
p5444
I19
sVactually
p5445
I260
sVresort
p5446
I19
sVabsence
p5447
I58
sVstrange
p5448
I64
sVsystems
p5449
I173
sVrelate
p5450
I26
sVstephen
p5451
I49
sVmounted
p5452
I17
sVsoccer
p5453
I13
sVmight
p5454
I614
sValter
p5455
I19
sVpost-war
p5456
I16
sVfool
p5457
I15
sVevening
p5458
I138
sVsomebody
p5459
I73
sVcalm
p5460
I12
sVthan
p5461
I1033
sVfood
p5462
I190
sVye
p5463
I15
sVreflected
p5464
I38
sVframework
p5465
I39
sVcommunities
p5466
I41
sVclouds
p5467
I16
sVbigger
p5468
I36
sVinstructions
p5469
I36
sVmarcus
p5470
I11
sVoccasions
p5471
I39
sVdelicate
p5472
I18
sVpresented
p5473
I80
sVlabour*
p5474
I131
sVstopped
p5475
I96
sVletting
p5476
I22
sVinherent
p5477
I13
sVtelegraph
p5478
I12
sVfriendship
p5479
I20
sVreferred
p5480
I62
sVheavy
p5481
I94
sVneil
p5482
I31
sVweight
p5483
I85
sVgeneration
p5484
I49
sVfees
p5485
I29
sVused
p5486
I45
sVbrother
p5487
I85
sVexpect
p5488
I106
sVundertake
p5489
I17
sVvon nop-
p5490
I10
sVorganised
p5491
I32
sVbeyond
p5492
I12
sVevent
p5493
I104
sVmist
p5494
I11
sValcohol
p5495
I30
sVwondered
p5496
I48
sVitem
p5497
I38
sVrobert
p5498
I79
sVsurrounded
p5499
I24
sVtemporary
p5500
I38
sVdouglas
p5501
I24
sVtrusts
p5502
I14
sVhealth
p5503
I246
sVhill
p5504
I14
sV7
p5505
I107
sVinduced
p5506
I12
sVissue
p5507
I16
sVbenjamin
p5508
I17
sVreporting
p5509
I12
sVnorwich
p5510
I15
sVfriday
p5511
I55
sVforgive
p5512
I14
sVpub
p5513
I38
sVlesser
p5514
I18
sVhouses
p5515
I96
sVreason
p5516
I181
sVbase
p5517
I86
sVorganising
p5518
I10
sVask
p5519
I194
sVdeputies
p5520
I12
sVteach
p5521
I28
sVearliest
p5522
I18
sVgenerate
p5523
I20
sVthrown
p5524
I30
sVlaunch
p5525
I13
sVterrible
p5526
I47
sVterribly
p5527
I13
sVamerican
p5528
I157
sVprejudice
p5529
I11
sVcircuit
p5530
I26
sVtwenty
p5531
I156
sVconsequence
p5532
I34
sVfallen
p5533
I36
sVst.
p5534
I17
sVfeed
p5535
I24
sVprobability
p5536
I16
sVfeel
p5537
I256
sVradical
p5538
I37
sVsydney
p5539
I10
sVolympic
p5540
I13
sVfancy
p5541
I12
sVlinking
p5542
I12
sVfeet
p5543
I141
sVsympathy
p5544
I22
sVrevolution
p5545
I47
sVconstruct
p5546
I13
sVblank
p5547
I15
sVnorth-east
p5548
I17
sVmiss
p5549
I35
sVvilla
p5550
I17
sVpasses
p5551
I13
sVstory
p5552
I137
sVtemperature
p5553
I44
sVscript
p5554
I12
sVleading
p5555
I52
sVinterviews
p5556
I24
sVstrategy
p5557
I62
sVstation
p5558
I100
sVidentity
p5559
I40
sVstorm
p5560
I23
sVdealing
p5561
I53
sVhundred
p5562
I191
sVrecovered
p5563
I22
sVshifted
p5564
I14
sVselling
p5565
I12
sVstatement
p5566
I98
sVpump
p5567
I10
sVrelieved
p5568
I12
sVexploded
p5569
I10
sVbowel
p5570
I12
sVhotel
p5571
I114
sVcorrespondent
p5572
I20
sVjordan
p5573
I14
sVauthors
p5574
I25
sVtranslation
p5575
I15
sVconvinced
p5576
I25
sV1914
p5577
I11
sVking
p5578
I16
sVkind
p5579
I14
sVscheme
p5580
I119
sVdouble
p5581
I11
sVinstruction
p5582
I23
sVgrey
p5583
I48
sVaims
p5584
I17
sVbride
p5585
I11
sVvenice
p5586
I10
sVarchitect
p5587
I16
sVstore
p5588
I36
sVtoward
p5589
I13
sVweapon
p5590
I20
sVsentenced
p5591
I12
sVcharlotte
p5592
I16
sVmotivation
p5593
I15
sVoutstanding
p5594
I30
sVstrengthen
p5595
I12
sVimports
p5596
I19
sVsuspicious
p5597
I14
sVjuice
p5598
I17
sVsubstantial
p5599
I62
sValike
p5600
I12
sVsentences
p5601
I29
sVgall
p5602
I10
sVmy
p5603
I1525
sVconcentration
p5604
I39
sVorgans
p5605
I10
sVvulnerable
p5606
I25
sVoption
p5607
I54
sVlid
p5608
I11
sVlie
p5609
I43
sVwilson
p5610
I40
sVnights
p5611
I28
sVcheck
p5612
I18
sVtrapped
p5613
I15
sVscotland
p5614
I131
sVofficers
p5615
I89
sVport
p5616
I30
sVlit
p5617
I23
sVlip
p5618
I16
sVuseless
p5619
I13
sVfinding
p5620
I12
sVliz
p5621
I17
sVfailing
p5622
I21
sVexperienced
p5623
I21
sVno one*
p5624
I81
sVreckon
p5625
I21
sVquote
p5626
I10
sVenglish
p5627
I81
sVreach
p5628
I13
sVarchitects
p5629
I11
sVreact
p5630
I13
sVcigarette
p5631
I23
sV75
p5632
I17
sVexperiences
p5633
I34
sVeaten
p5634
I17
sV70
p5635
I26
sVnothing
p5636
I341
sValpha
p5637
I11
sVmeasured
p5638
I30
sVapproved
p5639
I39
sVachievement
p5640
I31
sVconstitution
p5641
I40
sVsalary
p5642
I20
sVmineral
p5643
I12
sVmobile
p5644
I14
sVsoviet
p5645
I109
sVclear
p5646
I24
sVpopularity
p5647
I14
sVdiffer
p5648
I18
sVtraditional
p5649
I99
sVpart-time
p5650
I20
sVclean
p5651
I16
sVron
p5652
I13
sVusual
p5653
I64
sVphysics
p5654
I19
sVinstitutions
p5655
I65
sVlying
p5656
I46
sVsurrey
p5657
I16
sVmexico
p5658
I16
sVphenomenon
p5659
I22
sVglanced
p5660
I30
sVfond
p5661
I12
sVcarrie
p5662
I12
sVcompletion
p5663
I25
sVnorthern
p5664
I66
sVduncan
p5665
I15
sVjustice
p5666
I67
sVless
p5667
I101
sVpenalty
p5668
I27
sVflights
p5669
I12
sVpretty
p5670
I28
sVcircle
p5671
I34
sVdarwin
p5672
I11
sVhip
p5673
I10
sVhis
p5674
I4285
sVpublicity
p5675
I25
sVgains
p5676
I21
sVhiv
p5677
I16
sVmeanwhile
p5678
I48
sVtrees
p5679
I83
sVfamous
p5680
I65
sVfeels
p5681
I33
sVgrew
p5682
I46
sVreply
p5683
I13
sVduring
p5684
I440
sVhim
p5685
I1649
sValexander
p5686
I26
sVappeal
p5687
I19
sVinvestigate
p5688
I24
sVinterim
p5689
I17
sVgloves
p5690
I10
sVactivity
p5691
I115
sVswitzerland
p5692
I15
sVcreates
p5693
I14
sVemployer
p5694
I30
sVwrote
p5695
I99
sVseventeen
p5696
I18
sVart
p5697
I153
sVdetail
p5698
I61
sVskills
p5699
I91
sVmaurice
p5700
I10
sVthrowing
p5701
I18
sVintelligence
p5702
I35
sVenjoyed
p5703
I51
sVculture
p5704
I86
sVbare
p5705
I22
sVdescriptions
p5706
I15
sVclose
p5707
I11
sVarm
p5708
I91
sVdeclined
p5709
I21
sVbarn
p5710
I13
sVyouth
p5711
I54
sVwo~
p5712
I161
sVthreats
p5713
I14
sVprobable
p5714
I12
sVdistinctive
p5715
I22
sVuser
p5716
I60
sVlibraries
p5717
I22
sVunions
p5718
I45
sVwon
p5719
I117
sVvarious
p5720
I155
sVguardian
p5721
I21
sVcontrary
p5722
I13
sVnumerous
p5723
I32
sVclerk
p5724
I19
sVrisks
p5725
I25
sVkorea
p5726
I19
sVrecently
p5727
I123
sVcreating
p5728
I35
sVunconscious
p5729
I12
sVmissing
p5730
I15
sVinitially
p5731
I38
sVsold
p5732
I84
sVsole
p5733
I22
sVsucceed
p5734
I21
sVopposition
p5735
I91
sVcompetent
p5736
I12
sVbronze
p5737
I15
sVabruptly
p5738
I12
sVboth
p5739
I310
sVc
p5740
I19
sVsecrets
p5741
I14
sVsensitive
p5742
I36
sVroman
p5743
I44
sVbecame
p5744
I223
sVannie
p5745
I11
sVforgotten
p5746
I38
sVbond
p5747
I10
sVfinds
p5748
I29
sVexperimental
p5749
I24
sValbeit
p5750
I14
sVmillions
p5751
I27
sVliked
p5752
I56
sVdistress
p5753
I15
sVlarge-scale
p5754
I11
sVbattery
p5755
I13
sVsweet
p5756
I33
sVwhatever
p5757
I132
sVlikes
p5758
I21
sVvillage
p5759
I109
sVvessel
p5760
I14
sVbench
p5761
I20
sVmission
p5762
I27
sVswindon
p5763
I21
sVdecline
p5764
I41
sVarsenal
p5765
I12
sVincomes
p5766
I15
sVstamp
p5767
I11
sVdamp
p5768
I18
sVpolitical
p5769
I306
sVdue
p5770
I75
sVteacher
p5771
I87
sVpc
p5772
I23
sVreduction
p5773
I48
sVdescribes
p5774
I26
sVmaintenance
p5775
I40
sVmake-up
p5776
I13
sVcollected
p5777
I33
sVextends
p5778
I10
sVbrick
p5779
I18
sVterritory
p5780
I31
sVempty
p5781
I54
sVpm
p5782
I11
sVdialogue
p5783
I17
sValongside
p5784
I29
sVpartly
p5785
I57
sV1950s
p5786
I20
sVboy
p5787
I133
sVages
p5788
I36
sVcitizen
p5789
I14
sVprecision
p5790
I12
sVelse
p5791
I209
sVanthony
p5792
I24
sVdetermination
p5793
I28
sVliver
p5794
I17
sVdemand
p5795
I21
sVcustomers
p5796
I68
sVsurveys
p5797
I19
sVduke
p5798
I33
sVplants
p5799
I72
sVstolen
p5800
I19
sVconception
p5801
I19
sVthirty
p5802
I92
sVfrozen
p5803
I11
sVsocialist
p5804
I33
sVgovernor
p5805
I23
sVrope
p5806
I16
sVinstitute
p5807
I53
sVwhile
p5808
I63
sVsocialism
p5809
I17
sVmatch
p5810
I27
sVfleet
p5811
I19
sVp.
p5812
I14
sVguide
p5813
I12
sVengineers
p5814
I25
sVmiles
p5815
I98
sVunderground
p5816
I11
sVcostly
p5817
I11
sVvoters
p5818
I20
sVguilty
p5819
I42
sVcleaned
p5820
I11
sVready
p5821
I102
sVrid
p5822
I26
sVkings
p5823
I15
sVlengthy
p5824
I12
sVshirt
p5825
I28
sVjames
p5826
I102
sVlengths
p5827
I13
sVgovernment
p5828
I622
sVinteraction
p5829
I23
sVdelicious
p5830
I11
sVwidely
p5831
I56
sVpeoples
p5832
I15
sV9
p5833
I80
sVadvise
p5834
I20
sVcomposition
p5835
I23
sVdaughters
p5836
I21
sVhigher
p5837
I156
sVliterature
p5838
I52
sVlawyers
p5839
I24
sVperception
p5840
I22
sVbonus
p5841
I14
sVrestraint
p5842
I11
sVgallery
p5843
I43
sVnegotiate
p5844
I13
sVholidays
p5845
I28
sVflown
p5846
I11
sVmoving
p5847
I89
sVcleaning
p5848
I12
sVyeltsin
p5849
I12
sVundoubtedly
p5850
I24
sVlower
p5851
I111
sVolder
p5852
I90
sVpoland
p5853
I21
sVcheek
p5854
I19
sVanybody
p5855
I50
sVanalysis
p5856
I132
sVtheology
p5857
I11
sVnonetheless
p5858
I13
sVedge
p5859
I75
sVmachinery
p5860
I24
sVsept.
p5861
I30
sVstating
p5862
I10
sVambassador
p5863
I11
sVcave
p5864
I11
sVemerge
p5865
I21
sVsettlements
p5866
I13
sVcompetitive
p5867
I37
sVquarters
p5868
I18
sVintervals
p5869
I16
sVquestions
p5870
I143
sVuseful
p5871
I101
sVprince
p5872
I59
sVprofitable
p5873
I14
sVtables
p5874
I29
sVretirement
p5875
I34
sVmajority
p5876
I100
sVinformal
p5877
I24
sVadvisers
p5878
I18
sVworkers
p5879
I147
sVpercent
p5880
I29
sVguaranteed
p5881
I13
sVexclusively
p5882
I17
sVpressing
p5883
I14
sVexhibition
p5884
I54
sVtransformation
p5885
I17
sVchairman
p5886
I112
sVassociations
p5887
I20
sVcomplaint
p5888
I18
sVvendor
p5889
I15
sVlacking
p5890
I15
sVevaluate
p5891
I11
sVshowing
p5892
I63
sVgame
p5893
I150
sVwings
p5894
I24
sVsubmission
p5895
I11
sVsincerely
p5896
I11
sVsignal
p5897
I28
sVchristine
p5898
I11
sVshapes
p5899
I19
sVcollect
p5900
I28
sVarthur
p5901
I28
sVtranslated
p5902
I12
sVessential
p5903
I87
sVeec
p5904
I12
sVmathematical
p5905
I13
sVparade
p5906
I10
sVfucking
p5907
I12
sVfathers
p5908
I12
sVcreation
p5909
I47
sVsome
p5910
I1712
sVmetres
p5911
I34
sVunderstood
p5912
I57
sVtrends
p5913
I21
sVadded
p5914
I15
sVloads
p5915
I15
sVelectric
p5916
I34
sVdelivered
p5917
I31
sVgradually
p5918
I37
sVrarely
p5919
I42
sVdescribing
p5920
I19
sVabsolutely
p5921
I58
sVseller
p5922
I19
sVinnovation
p5923
I17
sVanne
p5924
I44
sVheadmaster
p5925
I12
sVanna
p5926
I28
sVeverybody
p5927
I61
sVmeasures
p5928
I65
sVeating
p5929
I13
sVbooklet
p5930
I10
sVmartin
p5931
I53
sVlakes
p5932
I12
sVrefused
p5933
I63
sVstep
p5934
I16
sVboxes
p5935
I27
sVnerves
p5936
I12
sVintense
p5937
I23
sVhandled
p5938
I16
sVfaith
p5939
I52
sVcautious
p5940
I11
sVaye
p5941
I52
sVrange
p5942
I196
sVpains
p5943
I11
sVeconomic
p5944
I236
sVsponsored
p5945
I11
sVhatred
p5946
I11
sVitalian
p5947
I40
sVsilence
p5948
I56
sVdisclosure
p5949
I10
sVphrases
p5950
I13
sVwithin
p5951
I13
sVnonsense
p5952
I16
sVseasons
p5953
I12
sVsports
p5954
I44
sValison
p5955
I14
sVcanal
p5956
I21
sVimpressed
p5957
I16
sVtenth
p5958
I11
sVrows
p5959
I20
sVcomputer
p5960
I138
sVrenewal
p5961
I11
sVplacing
p5962
I14
sVquestion
p5963
I15
sVfast
p5964
I31
sVaccountability
p5965
I12
sVconsultation
p5966
I24
sVheritage
p5967
I20
sVprey
p5968
I16
sVsections
p5969
I46
sVbelonged
p5970
I16
sVvienna
p5971
I13
sVfiles
p5972
I29
sVmountains
p5973
I28
sVhimself
p5974
I311
sVdownstairs
p5975
I17
sVregistered
p5976
I14
sVways
p5977
I149
sVvideo-taped
p5978
I38
sVcloth
p5979
I20
sVproperly
p5980
I57
sVrepeatedly
p5981
I13
sVrussian
p5982
I52
sVinjection
p5983
I10
sVjunior
p5984
I28
sVraising
p5985
I25
sVdealers
p5986
I18
sVconsist
p5987
I12
sVcharacteristic
p5988
I13
sVdaylight
p5989
I10
sVlifespan
p5990
I37
sVlords
p5991
I15
sVwindows
p5992
I88
sVperformances
p5993
I16
sVsimilar
p5994
I184
sVcalled
p5995
I329
sVinch
p5996
I18
sVassociated
p5997
I19
sVworthwhile
p5998
I15
sVstick
p5999
I19
sVcommissioner
p6000
I15
sVmetals
p6001
I10
sVwarning
p6002
I39
sVrally
p6003
I13
sVgraham
p6004
I42
sVarchbishop
p6005
I16
sVcotton
p6006
I22
sVlemon
p6007
I12
sVtone
p6008
I42
sVobjection
p6009
I13
sVpeace
p6010
I89
sVfears
p6011
I29
sVbacks
p6012
I12
sVteams
p6013
I39
sVnick
p6014
I28
sVpoliticians
p6015
I33
sVelectrical
p6016
I23
sVtransport
p6017
I82
sVincome
p6018
I120
sVdepartment
p6019
I177
sVnice
p6020
I129
sVwished
p6021
I37
sVdraw
p6022
I14
sVcurriculum
p6023
I53
sVusers
p6024
I65
sVreportedly
p6025
I15
sVproblems
p6026
I275
sVbreasts
p6027
I13
sVvisits
p6028
I28
sVwilliam
p6029
I84
sVgenerated
p6030
I25
sVrested
p6031
I11
sVallowing
p6032
I43
sVsmiled
p6033
I76
sVchocolate
p6034
I21
sVstructure
p6035
I137
sVindependently
p6036
I14
sVmargins
p6037
I12
sVpractically
p6038
I14
sVrequired
p6039
I20
sVdepartments
p6040
I42
sVmicrosoft
p6041
I20
sVdepth
p6042
I30
sVneighbouring
p6043
I14
sVthames
p6044
I18
sVnarrative
p6045
I11
sVrigid
p6046
I14
sVrequires
p6047
I53
sVsounded
p6048
I30
sVonce
p6049
I24
sVstones
p6050
I33
sVissued
p6051
I56
sVresistance
p6052
I37
sVsteve
p6053
I43
sVfarms
p6054
I18
sVproposition
p6055
I14
sVgang
p6056
I15
sVwinds
p6057
I14
sVparticularly
p6058
I220
sVadjustment
p6059
I14
sVcontributions
p6060
I28
sVkate
p6061
I24
sVissues
p6062
I121
sVcompact
p6063
I14
sVsimon
p6064
I43
sVdisposal
p6065
I21
sVlanguages
p6066
I34
sVtopic
p6067
I24
sVexcluded
p6068
I23
sVstable
p6069
I31
sVbreach
p6070
I31
sVinclude
p6071
I152
sVdramatically
p6072
I15
sVbreathing
p6073
I14
sVseized
p6074
I17
sVtribunal
p6075
I16
sVequivalent
p6076
I19
sVminers
p6077
I18
sVwave
p6078
I32
sVwishes
p6079
I15
sVtelling
p6080
I58
sVg.
p6081
I15
sVdrinking
p6082
I15
sVibm
p6083
I48
sVstiff
p6084
I15
sVgender
p6085
I20
sVnotes
p6086
I57
sVtokyo
p6087
I11
sVmichael
p6088
I95
sVleader
p6089
I93
sVdeals
p6090
I12
sVverdict
p6091
I14
sVleaning
p6092
I14
sVdealt
p6093
I35
sVrelation
p6094
I28
sVinspection
p6095
I20
sVnoted
p6096
I61
sVconcluded
p6097
I31
sVsmaller
p6098
I73
sVcarter
p6099
I13
sVdonald
p6100
I16
sVsensation
p6101
I14
sVboots
p6102
I26
sVjump
p6103
I16
sVnoise
p6104
I47
sVgo
p6105
I21
sVacid
p6106
I49
sV&times;
p6107
I16
sVmakers
p6108
I14
sVfolk
p6109
I21
sVuniversities
p6110
I27
sVplays
p6111
I12
sVpaintings
p6112
I33
sVconcessions
p6113
I11
sVcolonel
p6114
I19
sVslight
p6115
I30
sVnetworks
p6116
I19
sVgen.
p6117
I11
sVwaiting
p6118
I10
sVexperiment
p6119
I27
sVpoles
p6120
I13
sVcapital
p6121
I133
sVcollins
p6122
I11
sVnicholas
p6123
I24
sVchose
p6124
I28
sVdegree
p6125
I100
sVpushing
p6126
I23
sVcommercial
p6127
I79
sVmonetary
p6128
I28
sVyoungest
p6129
I12
sVgrowing
p6130
I35
sVexplore
p6131
I23
sVfocused
p6132
I17
sVseparation
p6133
I19
sVferry
p6134
I11
sVconvert
p6135
I11
sVparameters
p6136
I11
sV1961
p6137
I14
sVlarger
p6138
I76
sVmurdered
p6139
I14
sVleaving
p6140
I96
sVsuggests
p6141
I67
sVproducts
p6142
I106
sVgene
p6143
I21
sVsalvation
p6144
I11
sVexamining
p6145
I15
sVexaminations
p6146
I14
sVapple
p6147
I27
sVclark
p6148
I17
sVdeputy
p6149
I39
sVegypt
p6150
I22
sVwin
p6151
I22
sVworthy
p6152
I13
sVaustria
p6153
I13
sVallies
p6154
I16
sVmotor
p6155
I42
sVduck
p6156
I12
sVapply
p6157
I79
sVsinging
p6158
I21
sVcloud
p6159
I21
sVfed
p6160
I22
sVfee
p6161
I29
sVfrom
p6162
I4134
sVstream
p6163
I25
sVconsumption
p6164
I33
sV&
p6165
I136
sVremains
p6166
I15
sVmanagement
p6167
I218
sVnormal
p6168
I124
sVfew
p6169
I450
sVcamera
p6170
I27
sVexamination
p6171
I48
sVbitterly
p6172
I11
sVtimetable
p6173
I11
sVmeans
p6174
I96
sVpanel
p6175
I37
sVsubsidies
p6176
I11
sVreflects
p6177
I22
sVcheeks
p6178
I16
sVpossession
p6179
I29
sVbureaucracy
p6180
I13
sVclever
p6181
I24
sVformally
p6182
I22
sVjournalists
p6183
I18
sVstarted
p6184
I175
sVbecomes
p6185
I77
sVinclined
p6186
I13
sVvol.
p6187
I10
sVabout
p6188
I447
sVinfection
p6189
I27
sVcharming
p6190
I14
sVrabbit
p6191
I14
sVactual
p6192
I68
sVappointed
p6193
I61
sVwomen
p6194
I399
sVpaused
p6195
I25
sVsalad
p6196
I11
sVsanctions
p6197
I13
sVgovernments
p6198
I47
sVcritic
p6199
I12
sVrecession
p6200
I38
sVanywhere
p6201
I41
sVcrossed
p6202
I31
sVservants
p6203
I30
sVfreedom
p6204
I61
sVmeet
p6205
I141
sVcertainty
p6206
I14
sVproof
p6207
I27
sVcontrol
p6208
I53
sVtap
p6209
I12
sVlinks
p6210
I35
sVcalculation
p6211
I11
sVtax
p6212
I156
sVescaped
p6213
I19
sVassumptions
p6214
I25
sVpulling
p6215
I24
sVsomething
p6216
I526
sVsought
p6217
I53
sVwonderful
p6218
I49
sVskirt
p6219
I14
sVrape
p6220
I19
sVdominant
p6221
I30
sVsir
p6222
I188
sVunited
p6223
I12
sVsyndrome
p6224
I12
sVsit
p6225
I86
sVhydrogen
p6226
I12
sVsix
p6227
I303
sVpoetry
p6228
I29
sVfortunate
p6229
I13
sVtraders
p6230
I12
sVbrian
p6231
I45
sVinstead
p6232
I72
sVstruggled
p6233
I14
sVpanic
p6234
I17
sVsin
p6235
I13
sVcircular
p6236
I13
sVtension
p6237
I33
sVcupboard
p6238
I14
sVattend
p6239
I36
sVfarm
p6240
I68
sV3
p6241
I250
sVabuse
p6242
I34
sVwrist
p6243
I11
sVethnic
p6244
I23
sVengineering
p6245
I51
sVstatus
p6246
I88
sVintroduced
p6247
I86
sVtiles
p6248
I12
sVlight
p6249
I62
sVinterrupted
p6250
I14
sVshoulders
p6251
I42
sVclaire
p6252
I11
sVhonestly
p6253
I14
sVagenda
p6254
I24
sVexecutives
p6255
I13
sVsecured
p6256
I19
sVbreast
p6257
I17
sVtheft
p6258
I17
sVpiece
p6259
I92
sVinterpreted
p6260
I21
sVwhilst
p6261
I58
sVincluding
p6262
I11
sVlooks
p6263
I13
sVmentioned
p6264
I70
sVsuperior
p6265
I20
sVblake
p6266
I11
sVouter
p6267
I24
sVexclusion
p6268
I15
sVpaths
p6269
I14
sVmasses
p6270
I13
sVships
p6271
I27
sVpreviously
p6272
I69
sVpermanent
p6273
I45
sVbutton
p6274
I16
sVorange
p6275
I13
sVcovered
p6276
I79
sVbye
p6277
I17
sVcrowds
p6278
I13
sVcrash
p6279
I21
sVsword
p6280
I15
sVorthodox
p6281
I12
sVflour
p6282
I10
sVpractice
p6283
I171
sVflew
p6284
I23
sVemphasised
p6285
I12
sVferguson
p6286
I10
sVambition
p6287
I13
sVfront
p6288
I69
sVrepublican
p6289
I12
sVfled
p6290
I14
sVsuccessor
p6291
I14
sVworlds
p6292
I10
sVmasters
p6293
I18
sVprofound
p6294
I14
sVuniversity
p6295
I164
sVbilly
p6296
I22
sVtrap
p6297
I13
sVinterview
p6298
I43
sVh.
p6299
I17
sVbills
p6300
I30
sVtray
p6301
I14
sVcommonwealth
p6302
I18
sVprivatisation
p6303
I13
sVmap
p6304
I40
sVartists
p6305
I40
sVrelated
p6306
I30
sVconstitute
p6307
I16
sVdoubled
p6308
I12
sVmeasure
p6309
I18
sVsuite
p6310
I13
sVrelates
p6311
I15
sV80
p6312
I26
sVarray
p6313
I11
sVspecial
p6314
I220
sVout
p6315
I491
sVcategory
p6316
I33
sVrespects
p6317
I15
sVblues
p6318
I12
sVentertainment
p6319
I20
sVoccupied
p6320
I26
sVchaos
p6321
I16
sVmay
p6322
I150
sVreputation
p6323
I37
sVutility
p6324
I10
sVsupports
p6325
I14
sVintegrated
p6326
I17
sVachievements
p6327
I15
sVfun
p6328
I17
sValleged
p6329
I13
sVdictionary
p6330
I19
sVwines
p6331
I11
sVeighty
p6332
I38
sVwithdrawal
p6333
I20
sVdelegates
p6334
I16
sVattending
p6335
I18
sVcompletely
p6336
I86
sV1985
p6337
I74
sVyork
p6338
I99
sVconservatives
p6339
I23
sVconflicts
p6340
I15
sV1982
p6341
I52
sVphilip
p6342
I40
sVprincess
p6343
I29
sVtenant
p6344
I26
sVorganic
p6345
I21
sVhostile
p6346
I16
sVislamic
p6347
I13
sVdetermining
p6348
I13
sVroute
p6349
I56
sVrushed
p6350
I15
sVtimes
p6351
I292
sVconversation
p6352
I55
sVbirthday
p6353
I32
sVltd
p6354
I51
sVhence
p6355
I48
sVrestaurants
p6356
I16
sVvegetables
p6357
I18
sVdevon
p6358
I13
sVdesigned
p6359
I100
sVassignment
p6360
I12
sVprospective
p6361
I13
sVevans
p6362
I19
sVpowerful
p6363
I72
sVbars
p6364
I24
sVhitherto
p6365
I16
sVimproving
p6366
I16
sVchoose
p6367
I68
sV1988
p6368
I103
sVequity
p6369
I20
sV1989
p6370
I134
sVquality
p6371
I163
sVhiding
p6372
I12
sVbe*
p6373
I6644
sVlong
p6374
I181
sVpublication
p6375
I37
sVpractitioners
p6376
I20
sVprivacy
p6377
I11
sVguys
p6378
I12
sVachieved
p6379
I79
sVaccent
p6380
I14
sVrelations
p6381
I112
sVpriority
p6382
I34
sVtheir
p6383
I2608
sVattack
p6384
I18
sVwithout
p6385
I456
sVwrapped
p6386
I17
sVperfectly
p6387
I44
sVfinal
p6388
I28
sVshell
p6389
I20
sVshelf
p6390
I14
sVreversed
p6391
I11
sVshallow
p6392
I14
sVdebate
p6393
I70
sVcultural
p6394
I65
sVlists
p6395
I22
sVisraeli
p6396
I15
sVchemicals
p6397
I22
sVreflecting
p6398
I15
sVjuly
p6399
I119
sVoverwhelming
p6400
I14
sVherself
p6401
I172
sVinstitution
p6402
I49
sVblind
p6403
I26
sVwaist
p6404
I14
sVphotograph
p6405
I25
sVben
p6406
I32
sVholland
p6407
I16
sVisolation
p6408
I19
sVgeoff
p6409
I12
sVbed
p6410
I159
sVtommy
p6411
I12
sVclaim
p6412
I47
sVclaudia
p6413
I11
sVpatients
p6414
I173
sVproviding
p6415
I69
sVsculpture
p6416
I13
sVdistinguished
p6417
I12
sVcreditors
p6418
I12
sVare
p6419
I4707
sVdrunk
p6420
I16
sVlightly
p6421
I20
sVunchanged
p6422
I11
sVportrait
p6423
I17
sVneed
p6424
I169
sVborder
p6425
I40
sVlinked
p6426
I40
sVcatholic
p6427
I32
sVbastard
p6428
I14
sVafraid
p6429
I60
sVangle
p6430
I24
sVpupils
p6431
I81
sVrussians
p6432
I13
sVpursued
p6433
I15
sVagency
p6434
I59
sVable
p6435
I304
sVcontact
p6436
I42
sVinstance
p6437
I18
sVrelatives
p6438
I27
sVwhich
p6439
I3719
sVjail
p6440
I11
sVvegetation
p6441
I10
sVcriteria
p6442
I39
sVray
p6443
I18
sVclash
p6444
I11
sVknees
p6445
I26
sVpetrol
p6446
I24
sVcollaboration
p6447
I13
sVwho
p6448
I10
sVdutch
p6449
I23
sVaccountants
p6450
I12
sVintentions
p6451
I15
sVconnected
p6452
I31
sVbut
p6453
I22
sVpalace
p6454
I45
sVtall
p6455
I46
sVlearnt
p6456
I22
sVfuture
p6457
I85
sVwhy
p6458
I509
sVstatute
p6459
I16
sVdeny
p6460
I23
sVconsequences
p6461
I44
sVupset
p6462
I14
sVquestioned
p6463
I18
sVpipe
p6464
I23
sVproceedings
p6465
I43
sVlowered
p6466
I13
sVtalk
p6467
I41
sVpictures
p6468
I54
sVgoals
p6469
I47
sVpylori
p6470
I11
sVimpression
p6471
I42
sVparker
p6472
I11
sVperceptions
p6473
I12
sVchances
p6474
I30
sVplease
p6475
I11
sVagreed
p6476
I10
sVsent
p6477
I137
sVanyway
p6478
I122
sVchapters
p6479
I20
sVpurely
p6480
I26
sVplanning
p6481
I50
sVdemocrats
p6482
I20
sVdorothy
p6483
I12
sVsoldiers
p6484
I36
sVfear
p6485
I25
sVeyes
p6486
I297
sVpleased
p6487
I47
sVshoes
p6488
I37
sVpartners
p6489
I39
sVhighest
p6490
I47
sVbased
p6491
I186
sVearned
p6492
I19
sVwinner
p6493
I32
sVoperational
p6494
I17
sVsurroundings
p6495
I12
sVbases
p6496
I15
sVcandidates
p6497
I40
sVinherited
p6498
I13
sVfuel
p6499
I41
sVemployed
p6500
I49
sVpiano
p6501
I20
sVbells
p6502
I10
sVthousands
p6503
I55
sVmortality
p6504
I23
sVwatching
p6505
I65
sVfellow
p6506
I19
sVdisplayed
p6507
I25
sVoverall
p6508
I13
sV120
p6509
I10
sVjoint
p6510
I64
sVones
p6511
I118
sVlegitimate
p6512
I15
sVwords
p6513
I244
sVprobably
p6514
I273
sVbuyer
p6515
I27
sVargues
p6516
I23
sVchips
p6517
I18
sVendless
p6518
I16
sVgray
p6519
I11
sVprocesses
p6520
I54
sVevident
p6521
I26
sVtobacco
p6522
I15
sVended
p6523
I73
sVconditions
p6524
I154
sVmarried
p6525
I47
sVmaria
p6526
I21
sVshe
p6527
I3801
sVwish
p6528
I16
sVgenerations
p6529
I21
sVview
p6530
I16
sVspotted
p6531
I13
sVknowing
p6532
I47
sVrequirement
p6533
I32
sVj
p6534
I22
sVprayers
p6535
I10
sVacquired
p6536
I37
sVvariations
p6537
I25
sVshake
p6538
I13
sVhumans
p6539
I20
sVmodule
p6540
I32
sVoperates
p6541
I15
sVbreathe
p6542
I11
sVofficials
p6543
I62
sVyugoslavia
p6544
I14
sVfaces
p6545
I14
sVdesperate
p6546
I26
sVoperated
p6547
I21
sVexpects
p6548
I14
sVresponses
p6549
I26
sVcloser
p6550
I21
sVnightmare
p6551
I14
sVcruel
p6552
I14
sVbirds
p6553
I57
sVgenius
p6554
I11
sVstate
p6555
I26
sVconvince
p6556
I12
sVidentification
p6557
I22
sVclosed
p6558
I20
sVhorrible
p6559
I17
sVcrude
p6560
I13
sVlimit
p6561
I16
sVneither
p6562
I28
sVmainly
p6563
I71
sVbought
p6564
I91
sVpublishers
p6565
I15
sVrecipe
p6566
I12
sVattention
p6567
I137
sVability
p6568
I91
sVopening
p6569
I26
sVimportance
p6570
I97
sVjoy
p6571
I24
sVagencies
p6572
I37
sVinterfere
p6573
I11
sVembarrassment
p6574
I13
sVjob
p6575
I229
sVtakeover
p6576
I11
sVhypothesis
p6577
I17
sVjoe
p6578
I43
sVkey
p6579
I49
sVsitting
p6580
I81
sVgroup
p6581
I414
sVprecious
p6582
I16
sVproblem
p6583
I290
sVscreamed
p6584
I11
sVmonitor
p6585
I14
sVinterpretations
p6586
I11
sVweeks
p6587
I154
sVlimits
p6588
I30
sVcareer
p6589
I77
sVrespondents
p6590
I11
sVminds
p6591
I28
sVapril
p6592
I147
sVadmit
p6593
I38
sVgrain
p6594
I18
sVsafely
p6595
I17
sVjourney
p6596
I48
sVgrounds
p6597
I61
sVtorn
p6598
I10
sVwall
p6599
I114
sVtuesday
p6600
I36
sVsupreme
p6601
I33
sVenvironments
p6602
I14
sVwalk
p6603
I39
sVdistinguish
p6604
I20
sVsequences
p6605
I14
sVrespect
p6606
I49
sVwithdrawn
p6607
I17
sVpoem
p6608
I25
sVprovinces
p6609
I11
sVi.e.
p6610
I46
sVaddition
p6611
I21
sVdecent
p6612
I19
sVsara
p6613
I13
sVbbc
p6614
I43
sVcharts
p6615
I11
sVquid
p6616
I14
sVslowly
p6617
I79
sVagreements
p6618
I27
sVpoet
p6619
I22
sVpack
p6620
I25
sVremedies
p6621
I10
sVmike
p6622
I43
sVliverpool
p6623
I55
sVdiversity
p6624
I14
sVleague
p6625
I83
sVpainted
p6626
I24
sVsufficient
p6627
I59
sVfull-time
p6628
I21
sVscrutiny
p6629
I12
sVensuring
p6630
I19
sVexpenditure
p6631
I55
sVsuspension
p6632
I14
sVimproved
p6633
I21
sVcuts
p6634
I12
sVtanks
p6635
I15
sVpresent
p6636
I33
sVnovel
p6637
I11
sVabandoned
p6638
I26
sVunlike
p6639
I40
sVcontexts
p6640
I12
sVdecades
p6641
I25
sVliberal*
p6642
I54
sVharder
p6643
I14
sVchoices
p6644
I18
sVconstance
p6645
I12
sVtexas
p6646
I10
sVwild
p6647
I51
sVlocated
p6648
I25
sVhappened
p6649
I139
sVsupply
p6650
I26
sVlayer
p6651
I25
sVannual
p6652
I81
sVresident
p6653
I12
sVthus
p6654
I205
sVencouragement
p6655
I15
sVexamined
p6656
I36
sVgothic
p6657
I12
sVdual
p6658
I12
sVstands
p6659
I29
sVkissed
p6660
I18
sVperhaps
p6661
I350
sVbegan
p6662
I237
sVviews
p6663
I74
sVradiation
p6664
I17
sVcross
p6665
I23
sVmember
p6666
I175
sVadverse
p6667
I12
sVunity
p6668
I28
sVparts
p6669
I116
sVspeaker
p6670
I80
sVgeographical
p6671
I16
sVlargest
p6672
I58
sVunits
p6673
I71
sVparty
p6674
I403
sVgets
p6675
I78
sVsolution
p6676
I69
sVdifficult
p6677
I220
sVfur
p6678
I10
sVpractitioner
p6679
I11
sVcontext
p6680
I86
sVappearances
p6681
I12
sVconceived
p6682
I12
sVeffect
p6683
I228
sVrecommendations
p6684
I26
sVstudent
p6685
I77
sVfierce
p6686
I16
sVfrequently
p6687
I58
sVcollar
p6688
I14
sVsingle
p6689
I177
sVkeep
p6690
I276
sVscarcely
p6691
I17
sVtransaction
p6692
I23
sVashley
p6693
I11
sVreflection
p6694
I20
sV1954
p6695
I10
sVi
p6696
I8875
sVapprove
p6697
I11
sVincredible
p6698
I12
sVwell
p6699
I42
sVfighting
p6700
I21
sVfailures
p6701
I11
sVqualified
p6702
I13
sV47
p6703
I11
sVfirstly
p6704
I17
sVundertaken
p6705
I27
sVrealised
p6706
I49
sVrestore
p6707
I17
sVexcessive
p6708
I17
sVcried
p6709
I30
sVheavily
p6710
I41
sVincreasingly
p6711
I66
sVoak
p6712
I16
sVaccurate
p6713
I29
sVcolours
p6714
I45
sVobtain
p6715
I46
sVdose
p6716
I16
sVsources
p6717
I67
sVmistakes
p6718
I16
sVdistant
p6719
I29
sVfishing
p6720
I32
sVskill
p6721
I35
sVhappiness
p6722
I17
sVmysterious
p6723
I13
sVrapid
p6724
I36
sVdensity
p6725
I16
sV1959
p6726
I12
sVpoint
p6727
I33
sVsky
p6728
I50
sVdeposits
p6729
I19
sVdiscuss
p6730
I56
sVreasons
p6731
I108
sVother
p6732
I43
sVadoption
p6733
I16
sVattractive
p6734
I52
sVusage
p6735
I12
sVsmart
p6736
I15
sVacted
p6737
I23
sVfunded
p6738
I13
sVidentical
p6739
I22
sVgods
p6740
I14
sVbranch
p6741
I53
sVmyth
p6742
I15
sVvan nop-
p6743
I22
sVrepublics
p6744
I15
sVall right*
p6745
I64
sVhistoric
p6746
I23
sVknow
p6747
I1233
sVburden
p6748
I26
sVpress
p6749
I29
sVimmediately
p6750
I102
sVprominent
p6751
I23
sVloss
p6752
I116
sVcheshire
p6753
I11
sVnecessary
p6754
I181
sVhelpful
p6755
I32
sVlost
p6756
I25
sVsizes
p6757
I17
sValternatively
p6758
I17
sVopera
p6759
I23
sVpayments
p6760
I45
sVcorners
p6761
I16
sVleaves
p6762
I29
sVrefugees
p6763
I19
sVpage
p6764
I106
sVregardless
p6765
I15
sVexceed
p6766
I10
sVbecause
p6767
I178
sVfunctional
p6768
I20
sVsequence
p6769
I42
sVscared
p6770
I12
sVscottish
p6771
I98
sVphenomena
p6772
I14
sVsearching
p6773
I19
sVlibrary
p6774
I82
sVmotive
p6775
I10
sVgrowth
p6776
I130
sVexport
p6777
I21
sVcleveland
p6778
I17
sVhome
p6779
I194
sVempire
p6780
I36
sVpeter
p6781
I124
sVemployment
p6782
I107
sVscales
p6783
I15
sVthroughout
p6784
I116
sVleaf
p6785
I15
sVlead
p6786
I55
sVbroad
p6787
I49
sVmines
p6788
I14
sVconstantly
p6789
I31
sVco /
p6790
I40
sVdemonstrated
p6791
I27
sVlimitations
p6792
I18
sVmedieval
p6793
I25
sVreaching
p6794
I29
sVjournal
p6795
I24
sVanalysed
p6796
I18
sVexpansion
p6797
I36
sVstates
p6798
I19
sVscots
p6799
I12
sVdoctors
p6800
I45
sVinstinct
p6801
I11
sVdescribed
p6802
I148
sVanalyses
p6803
I11
sVswept
p6804
I21
sVraise
p6805
I61
sVthrone
p6806
I12
sVrare
p6807
I46
sVcarried
p6808
I138
sVextension
p6809
I35
sVgetting
p6810
I203
sVcolumn
p6811
I28
sVuniverse
p6812
I26
sVdependence
p6813
I13
sVurged
p6814
I23
sVmadame
p6815
I11
sVcompatible
p6816
I12
sVcarries
p6817
I18
sVcarrier
p6818
I13
sVplaces
p6819
I91
sVtongue
p6820
I24
sVemperor
p6821
I21
sVpersuaded
p6822
I21
sVowl
p6823
I11
sVequally
p6824
I66
sVown
p6825
I16
sVowe
p6826
I13
sVwashington
p6827
I33
sVweather
p6828
I57
sVpromise
p6829
I15
sVbrush
p6830
I13
sVregistration
p6831
I22
sVdug
p6832
I11
sVprompted
p6833
I16
sVhitting
p6834
I11
sVvan
p6835
I21
sVadditional
p6836
I74
sVwhom
p6837
I129
sVtransfer
p6838
I18
sVrightly
p6839
I15
sV*
p6840
I15
sVnoticed
p6841
I53
sVcontinental
p6842
I17
sVintention
p6843
I47
sVthreat
p6844
I57
sVinner
p6845
I45
sVbreeding
p6846
I19
sVinspiration
p6847
I14
sVcricket
p6848
I33
sVnorth
p6849
I54
sVaircraft
p6850
I62
sVfunds
p6851
I62
sVhp
p6852
I11
sVvolume
p6853
I54
sVneutral
p6854
I16
sVec
p6855
I67
sVcourts
p6856
I59
sVear
p6857
I29
sVph
p6858
I15
sVhe
p6859
I6810
sVmade
p6860
I943
sVtactics
p6861
I14
sVwhether
p6862
I332
sVcells
p6863
I76
sVpolitics
p6864
I75
sVsigned
p6865
I57
sVrecord
p6866
I23
sVbelow
p6867
I55
sVgaps
p6868
I11
sVstories
p6869
I48
sVruling
p6870
I12
sVkatherine
p6871
I11
sVcake
p6872
I28
sVdemonstrate
p6873
I24
sVnorman
p6874
I23
sVwalter
p6875
I19
sVbroadly
p6876
I16
sVdisplay
p6877
I19
sVblock
p6878
I36
sVjenny
p6879
I18
sVinadequate
p6880
I23
sVuniversal
p6881
I26
sVpenny
p6882
I12
sVkingdom nop-
p6883
I44
sVlived
p6884
I82
sVgoodness
p6885
I15
sVflight
p6886
I52
sVeducation
p6887
I260
sVeric
p6888
I19
sVmutual
p6889
I22
sV'll
p6890
I726
sVgay
p6891
I16
sVingredients
p6892
I13
sVboot
p6893
I15
sVpromote
p6894
I32
sVenvisaged
p6895
I12
sVwestminster
p6896
I22
sVnhs
p6897
I25
sVbook
p6898
I243
sVboom
p6899
I16
sVsick
p6900
I44
sVyoungsters
p6901
I17
sVer
p6902
I896
sVconclusion
p6903
I51
sVkinds
p6904
I47
sVdiagnosis
p6905
I17
sVoct.
p6906
I32
sVjune
p6907
I146
sVultimately
p6908
I29
sVstay
p6909
I11
sVmargaret
p6910
I38
sVtonnes
p6911
I19
sVpriced
p6912
I11
sVfriends
p6913
I151
sVincurred
p6914
I12
sVupwards
p6915
I16
sVappoint
p6916
I10
sVranks
p6917
I16
sVpools
p6918
I11
sVfactors
p6919
I87
sVpersistent
p6920
I13
sVcasual
p6921
I18
sVportion
p6922
I11
sVvolumes
p6923
I16
sVideological
p6924
I17
sVunderstand
p6925
I155
sVindirectly
p6926
I10
stp6927
Rp6928
.